

Microchip Technology PIC18 LITE Macro Assembler V1.33 build 59893 
                                                                                               Wed Oct 29 01:44:54 2014

Microchip Technology Omniscient Code Generator (Lite mode) build 59893
     1                           	processor	18F46J50
     2                           	fnconf	param0,??,?,0
     3                           	opt	pw 120
     4                           	opt	lm
     5                           	psect	nvCOMRAM,global,class=COMRAM,space=1,delta=1
     6                           	psect	nvBANK0,global,class=BANK0,space=1,delta=1
     7                           	psect	cinit,global,reloc=2,class=CODE,delta=1
     8                           	psect	bssCOMRAM,global,class=COMRAM,space=1,delta=1
     9                           	psect	bssBANK0,global,class=BANK0,space=1,delta=1
    10                           	psect	bssBANK1,global,class=BANK1,space=1,delta=1
    11                           	psect	bssBANK2,global,class=BANK2,space=1,delta=1
    12                           	psect	cstackBANK2,global,class=BANK2,space=1,delta=1
    13                           	psect	cstackBANK1,global,class=BANK1,space=1,delta=1
    14                           	psect	cstackBANK0,global,class=BANK0,space=1,delta=1
    15                           	psect	cstackCOMRAM,global,class=COMRAM,space=1,delta=1
    16                           	psect	text0,global,reloc=2,class=CODE,delta=1
    17                           	psect	text1,global,reloc=2,class=CODE,delta=1
    18                           	psect	text2,global,reloc=2,class=CODE,delta=1
    19                           	psect	text3,global,reloc=2,class=CODE,delta=1
    20                           	psect	text4,global,reloc=2,class=CODE,delta=1
    21                           	psect	text5,global,reloc=2,class=CODE,delta=1
    22                           	psect	text6,global,reloc=2,class=CODE,delta=1
    23                           	psect	text7,global,reloc=2,class=CODE,delta=1
    24                           	psect	text8,global,reloc=2,class=CODE,delta=1
    25                           	psect	text9,global,reloc=2,class=CODE,delta=1
    26                           	psect	text10,global,reloc=2,class=CODE,delta=1
    27                           	psect	text11,global,reloc=2,class=CODE,delta=1
    28                           	psect	text12,global,reloc=2,class=CODE,delta=1
    29                           	psect	text13,global,reloc=2,class=CODE,delta=1
    30                           	psect	text14,global,reloc=2,class=CODE,delta=1
    31                           	psect	text15,global,reloc=2,class=CODE,delta=1
    32                           	psect	text16,global,reloc=2,class=CODE,delta=1
    33                           	psect	text17,global,reloc=2,class=CODE,delta=1
    34                           	psect	text18,global,reloc=2,class=CODE,delta=1
    35                           	psect	text19,global,reloc=2,class=CODE,delta=1
    36                           	psect	text20,global,reloc=2,class=CODE,delta=1
    37                           	psect	text21,global,reloc=2,class=CODE,delta=1
    38                           	psect	text22,global,reloc=2,class=CODE,delta=1
    39                           	psect	text23,global,reloc=2,class=CODE,delta=1
    40                           	psect	text24,global,reloc=2,class=CODE,delta=1
    41                           	psect	text25,global,reloc=2,class=CODE,delta=1
    42                           	psect	text26,global,reloc=2,class=CODE,delta=1
    43                           	psect	text27,global,reloc=2,class=CODE,delta=1
    44                           	psect	text28,global,reloc=2,class=CODE,delta=1
    45                           	psect	text29,global,reloc=2,class=CODE,delta=1
    46                           	psect	intcodelo,global,reloc=2,class=CODE,delta=1
    47                           	psect	text31,global,reloc=2,class=CODE,delta=1
    48                           	psect	text32,global,reloc=2,class=CODE,delta=1
    49                           	psect	text33,global,reloc=2,class=CODE,delta=1
    50                           	psect	text34,global,reloc=2,class=CODE,delta=1
    51                           	psect	text35,global,reloc=2,class=CODE,delta=1
    52                           	psect	text36,global,reloc=2,class=CODE,delta=1
    53                           	psect	text37,global,reloc=2,class=CODE,delta=1
    54                           	psect	text38,global,reloc=2,class=CODE,delta=1
    55                           	psect	text39,global,reloc=2,class=CODE,delta=1
    56                           	psect	text40,global,reloc=2,class=CODE,delta=1
    57                           	psect	text41,global,reloc=2,class=CODE,delta=1
    58                           	psect	intcode,global,reloc=2,class=CODE,delta=1
    59                           	psect	intcode_body,global,reloc=2,class=CODE,delta=1
    60                           	psect	text43,global,reloc=2,class=CODE,delta=1
    61                           	psect	text44,global,reloc=2,class=CODE,delta=1
    62                           	psect	text45,global,reloc=2,class=CODE,delta=1
    63                           	psect	text46,global,reloc=2,class=CODE,delta=1
    64                           	psect	text47,global,reloc=2,class=CODE,delta=1
    65                           	psect	text48,global,reloc=2,class=CODE,delta=1
    66                           	psect	text49,global,reloc=2,class=CODE,delta=1
    67                           	psect	text50,global,reloc=2,class=CODE,delta=1
    68                           	psect	text51,global,reloc=2,class=CODE,delta=1
    69                           	psect	text52,global,reloc=2,class=CODE,delta=1
    70                           	psect	text53,global,reloc=2,class=CODE,delta=1
    71                           	psect	text54,global,reloc=2,class=CODE,delta=1
    72                           	psect	intsave_regs,global,class=BIGRAM,space=1,delta=1
    73                           	psect	param0,global,class=BANK0,space=1,delta=1
    74  0000                     _ADRES	set	4035
    75  0000                     _ADCON0	set	4034
    76  0000                     _ADCON0bits	set	4034
    77  0000                     _ADCON1bits	set	4033
    78  0000                     _ANCON0bits	set	3912
    79  0000                     _BAUDCON1bits	set	3966
    80  0000                     _INTCON2bits	set	4081
    81  0000                     _INTCONbits	set	4082
    82  0000                     _IPR1bits	set	3999
    83  0000                     _LATCbits	set	3979
    84  0000                     _LATEbits	set	3981
    85  0000                     _OSCCON	set	4051
    86  0000                     _OSCCONbits	set	4051
    87  0000                     _OSCTUNEbits	set	3995
    88  0000                     _PIE1bits	set	3997
    89  0000                     _PIR1bits	set	3998
    90  0000                     _PORTBbits	set	3969
    91  0000                     _RCONbits	set	4048
    92  0000                     _RCREG1	set	4015
    93  0000                     _RCSTA1	set	4012
    94  0000                     _RCSTA1bits	set	4012
    95  0000                     _RCSTAbits	set	4012
    96  0000                     _SPBRG1	set	4016
    97  0000                     _SPBRGH1	set	3967
    98  0000                     _SSPADD	set	4040
    99  0000                     _SSPBUF	set	4041
   100  0000                     _SSPCON1	set	4038
   101  0000                     _SSPCON1bits	set	4038
   102  0000                     _SSPCON2	set	4037
   103  0000                     _SSPCON2bits	set	4037
   104  0000                     _SSPSTAT	set	4039
   105  0000                     _SSPSTATbits	set	4039
   106  0000                     _T0CON	set	4053
   107  0000                     _T0CONbits	set	4053
   108  0000                     _T1CON	set	4045
   109  0000                     _T1CONbits	set	4045
   110  0000                     _T1GCON	set	3994
   111  0000                     _T1GCONbits	set	3994
   112  0000                     _TMR0H	set	4055
   113  0000                     _TMR0L	set	4054
   114  0000                     _TMR1H	set	4047
   115  0000                     _TMR1L	set	4046
   116  0000                     _TRISAbits	set	3986
   117  0000                     _TRISBbits	set	3987
   118  0000                     _TRISCbits	set	3988
   119  0000                     _TRISEbits	set	3990
   120  0000                     _TXREG	set	4014
   121  0000                     _TXSTA1	set	4013
   122  0000                     _TXSTA1bits	set	4013
   123  0000                     _TXSTAbits	set	4013
   124                           
   125                           	psect	nvCOMRAM
   126  000031                     __pnvCOMRAM:
   127                           	opt stack 0
   128  000031                     _uc_ptr:
   129                           	opt stack 0
   130  000031                     	ds	2
   131                           
   132                           	psect	nvBANK0
   133  0000CC                     __pnvBANK0:
   134                           	opt stack 0
   135  0000CC                     _ic_ptr:
   136                           	opt stack 0
   137  0000CC                     	ds	2
   138                           
   139                           ; #config settings
   140  0000                     
   141                           	psect	cinit
   142  001664                     __pcinit:
   143                           	opt stack 0
   144  001664                     start_initialization:
   145                           	opt stack 0
   146  001664                     __initialization:
   147                           	opt stack 0
   148                           
   149                           ; Clear objects allocated to BANK2 (54 bytes)
   150  001664  EE02  F043         	lfsr	0,__pbssBANK2
   151  001668  0E36               	movlw	54
   152  00166A                     clear_0:
   153  00166A  6AEE               	clrf	postinc0,c
   154  00166C  06E8               	decf	wreg,f,c
   155  00166E  E1FD               	bnz	clear_0
   156                           
   157                           ; Clear objects allocated to BANK1 (162 bytes)
   158  001670  EE01  F000         	lfsr	0,__pbssBANK1
   159  001674  0EA2               	movlw	162
   160  001676                     clear_1:
   161  001676  6AEE               	clrf	postinc0,c
   162  001678  06E8               	decf	wreg,f,c
   163  00167A  E1FD               	bnz	clear_1
   164                           
   165                           ; Clear objects allocated to BANK0 (55 bytes)
   166  00167C  EE00  F060         	lfsr	0,__pbssBANK0
   167  001680  0E37               	movlw	55
   168  001682                     clear_2:
   169  001682  6AEE               	clrf	postinc0,c
   170  001684  06E8               	decf	wreg,f,c
   171  001686  E1FD               	bnz	clear_2
   172                           
   173                           ; Clear objects allocated to COMRAM (1 bytes)
   174  001688  6A33               	clrf	__pbssCOMRAM& (0+255),c
   175  00168A                     end_of_initialization:
   176                           	opt stack 0
   177  00168A                     __end_of__initialization:
   178                           	opt stack 0
   179  00168A  0E00               	movlw	low (__Lmediumconst shr (0+16))
   180  00168C  6EF8               	movwf	tblptru,c
   181  00168E  0100               	movlb	0
   182  001690  EF18  F003         	goto	_main	;jump to C main() function
   183                           tblptru	equ	0xFF8
   184                           postinc0	equ	0xFEE
   185                           wreg	equ	0xFE8
   186                           
   187                           	psect	bssCOMRAM
   188  000033                     __pbssCOMRAM:
   189                           	opt stack 0
   190  000033                     _USART1_Status:
   191                           	opt stack 0
   192  000033                     	ds	1
   193                           tblptru	equ	0xFF8
   194                           postinc0	equ	0xFEE
   195                           wreg	equ	0xFE8
   196                           
   197                           	psect	bssBANK0
   198  000060                     __pbssBANK0:
   199                           	opt stack 0
   200  000060                     _MQ_Main_Willing_to_block:
   201                           	opt stack 0
   202  000060                     	ds	1
   203  000061                     _ToMainLow_MQ:
   204                           	opt stack 0
   205  000061                     	ds	54
   206                           tblptru	equ	0xFF8
   207                           postinc0	equ	0xFEE
   208                           wreg	equ	0xFE8
   209                           
   210                           	psect	bssBANK1
   211  000100                     __pbssBANK1:
   212                           	opt stack 0
   213  000100                     _FromMainLow_MQ:
   214                           	opt stack 0
   215  000100                     	ds	54
   216  000136                     _SensorData_MQ:
   217                           	opt stack 0
   218  000136                     	ds	54
   219  00016C                     _ToMainHigh_MQ:
   220                           	opt stack 0
   221  00016C                     	ds	54
   222                           tblptru	equ	0xFF8
   223                           postinc0	equ	0xFEE
   224                           wreg	equ	0xFE8
   225                           
   226                           	psect	bssBANK2
   227  000243                     __pbssBANK2:
   228                           	opt stack 0
   229  000243                     _FromMainHigh_MQ:
   230                           	opt stack 0
   231  000243                     	ds	54
   232                           tblptru	equ	0xFF8
   233                           postinc0	equ	0xFEE
   234                           wreg	equ	0xFE8
   235                           
   236                           	psect	cstackBANK2
   237  000200                     __pcstackBANK2:
   238                           	opt stack 0
   239  000200                     main@k:
   240                           	opt stack 0
   241                           
   242                           ; 2 bytes @ 0x0
   243  000200                     	ds	2
   244  000202                     main@last_reg_recvd:
   245                           	opt stack 0
   246                           
   247                           ; 1 bytes @ 0x2
   248  000202                     	ds	1
   249  000203                     main@msgbuffer:
   250                           	opt stack 0
   251                           
   252                           ; 11 bytes @ 0x3
   253  000203                     	ds	11
   254  00020E                     main@t0thread_data:
   255                           	opt stack 0
   256                           
   257                           ; 2 bytes @ 0xE
   258  00020E                     	ds	2
   259  000210                     main@forward:
   260                           	opt stack 0
   261                           
   262                           ; 2 bytes @ 0x10
   263  000210                     	ds	2
   264  000212                     main@t1thread_data:
   265                           	opt stack 0
   266                           
   267                           ; 2 bytes @ 0x12
   268  000212                     	ds	2
   269  000214                     main@msgtype:
   270                           	opt stack 0
   271                           
   272                           ; 1 bytes @ 0x14
   273  000214                     	ds	1
   274  000215                     main@uc:
   275                           	opt stack 0
   276                           
   277                           ; 14 bytes @ 0x15
   278  000215                     	ds	14
   279  000223                     main@length:
   280                           	opt stack 0
   281                           
   282                           ; 1 bytes @ 0x23
   283  000223                     	ds	1
   284  000224                     main@ic:
   285                           	opt stack 0
   286                           
   287                           ; 31 bytes @ 0x24
   288  000224                     	ds	31
   289                           tblptru	equ	0xFF8
   290                           postinc0	equ	0xFEE
   291                           wreg	equ	0xFE8
   292                           
   293                           	psect	cstackBANK1
   294  0001A2                     __pcstackBANK1:
   295                           	opt stack 0
   296  0001A2                     ??_Open1USART:
   297  0001A2                     ??_start_i2c_slave_reply:
   298  0001A2                     ?_in_low_int:
   299                           	opt stack 0
   300  0001A2                     ?___lwmod:
   301                           	opt stack 0
   302  0001A2                     timer0_lthread@tptr:
   303                           	opt stack 0
   304  0001A2                     ___lwmod@dividend:
   305                           	opt stack 0
   306  0001A2                     memcpy@d1:
   307                           	opt stack 0
   308                           
   309                           ; 2 bytes @ 0x0
   310  0001A2                     	ds	2
   311  0001A4                     ?_in_main:
   312                           	opt stack 0
   313  0001A4                     timer0_lthread@msgtype:
   314                           	opt stack 0
   315  0001A4                     ___lwmod@divisor:
   316                           	opt stack 0
   317  0001A4                     memcpy@s1:
   318                           	opt stack 0
   319                           
   320                           ; 2 bytes @ 0x2
   321  0001A4                     	ds	2
   322  0001A6                     timer0_lthread@length:
   323                           	opt stack 0
   324  0001A6                     memcpy@n:
   325                           	opt stack 0
   326                           
   327                           ; 2 bytes @ 0x4
   328  0001A6                     	ds	2
   329  0001A8                     timer0_lthread@msgbuffer:
   330                           	opt stack 0
   331  0001A8                     memcpy@d:
   332                           	opt stack 0
   333                           
   334                           ; 2 bytes @ 0x6
   335  0001A8                     	ds	2
   336  0001AA                     memcpy@s:
   337                           	opt stack 0
   338                           
   339                           ; 2 bytes @ 0x8
   340  0001AA                     	ds	2
   341  0001AC                     send_msg@qptr:
   342                           	opt stack 0
   343  0001AC                     recv_msg@qptr:
   344                           	opt stack 0
   345                           
   346                           ; 2 bytes @ 0xA
   347  0001AC                     	ds	2
   348  0001AE                     send_msg@length:
   349                           	opt stack 0
   350  0001AE                     recv_msg@maxlength:
   351                           	opt stack 0
   352                           
   353                           ; 1 bytes @ 0xC
   354  0001AE                     	ds	1
   355  0001AF                     send_msg@msgtype:
   356                           	opt stack 0
   357  0001AF                     recv_msg@msgtype:
   358                           	opt stack 0
   359                           
   360                           ; 2 bytes @ 0xD
   361  0001AF                     	ds	1
   362  0001B0                     send_msg@data:
   363                           	opt stack 0
   364                           
   365                           ; 2 bytes @ 0xE
   366  0001B0                     	ds	1
   367  0001B1                     recv_msg@data:
   368                           	opt stack 0
   369                           
   370                           ; 2 bytes @ 0xF
   371  0001B1                     	ds	1
   372  0001B2                     send_msg@tlength:
   373                           	opt stack 0
   374                           
   375                           ; 2 bytes @ 0x10
   376  0001B2                     	ds	1
   377  0001B3                     recv_msg@slot:
   378                           	opt stack 0
   379                           
   380                           ; 1 bytes @ 0x11
   381  0001B3                     	ds	1
   382  0001B4                     send_msg@slot:
   383                           	opt stack 0
   384  0001B4                     recv_msg@tlength:
   385                           	opt stack 0
   386                           
   387                           ; 2 bytes @ 0x12
   388  0001B4                     	ds	1
   389  0001B5                     send_msg@qmsg:
   390                           	opt stack 0
   391                           
   392                           ; 2 bytes @ 0x13
   393  0001B5                     	ds	1
   394  0001B6                     recv_msg@qmsg:
   395                           	opt stack 0
   396                           
   397                           ; 2 bytes @ 0x14
   398  0001B6                     	ds	1
   399  0001B7                     FromMainLow_sendmsg@msgtype:
   400                           	opt stack 0
   401  0001B7                     FromMainHigh_sendmsg@msgtype:
   402                           	opt stack 0
   403                           
   404                           ; 1 bytes @ 0x15
   405  0001B7                     	ds	1
   406  0001B8                     ToMainLow_recvmsg@msgtype:
   407                           	opt stack 0
   408  0001B8                     ToMainHigh_recvmsg@msgtype:
   409                           	opt stack 0
   410  0001B8                     FromMainLow_sendmsg@data:
   411                           	opt stack 0
   412  0001B8                     FromMainHigh_sendmsg@data:
   413                           	opt stack 0
   414                           
   415                           ; 2 bytes @ 0x16
   416  0001B8                     	ds	2
   417  0001BA                     ToMainLow_recvmsg@data:
   418                           	opt stack 0
   419  0001BA                     ToMainHigh_recvmsg@data:
   420                           	opt stack 0
   421  0001BA                     uart_send@length:
   422                           	opt stack 0
   423  0001BA                     timer1_lthread@tptr:
   424                           	opt stack 0
   425                           
   426                           ; 2 bytes @ 0x18
   427  0001BA                     	ds	2
   428  0001BC                     uart_send@msg_buffer:
   429                           	opt stack 0
   430  0001BC                     timer1_lthread@msgtype:
   431                           	opt stack 0
   432                           
   433                           ; 2 bytes @ 0x1A
   434  0001BC                     	ds	2
   435  0001BE                     timer1_lthread@length:
   436                           	opt stack 0
   437                           
   438                           ; 2 bytes @ 0x1C
   439  0001BE                     	ds	2
   440  0001C0                     timer1_lthread@msgbuffer:
   441                           	opt stack 0
   442                           
   443                           ; 2 bytes @ 0x1E
   444  0001C0                     	ds	2
   445                           tblptru	equ	0xFF8
   446                           postinc0	equ	0xFEE
   447                           wreg	equ	0xFE8
   448                           
   449                           	psect	cstackBANK0
   450  000097                     __pcstackBANK0:
   451                           	opt stack 0
   452  000097                     ?i2_in_high_int:
   453                           	opt stack 0
   454  000097                     handle_start@data_read:
   455                           	opt stack 0
   456  000097                     WriteTimer0@timer0:
   457                           	opt stack 0
   458  000097                     i2check_msg@qptr:
   459                           	opt stack 0
   460  000097                     i2memcpy@d1:
   461                           	opt stack 0
   462                           
   463                           ; 2 bytes @ 0x0
   464  000097                     	ds	2
   465  000099                     ??i2_check_msg:
   466  000099                     ?i2_in_low_int:
   467                           	opt stack 0
   468  000099                     WriteTimer0@timer:
   469                           	opt stack 0
   470  000099                     i2memcpy@s1:
   471                           	opt stack 0
   472                           
   473                           ; 2 bytes @ 0x2
   474  000099                     	ds	2
   475  00009B                     i2memcpy@n:
   476                           	opt stack 0
   477                           
   478                           ; 2 bytes @ 0x4
   479  00009B                     	ds	2
   480  00009D                     i2memcpy@d:
   481                           	opt stack 0
   482                           
   483                           ; 2 bytes @ 0x6
   484  00009D                     	ds	2
   485  00009F                     i2memcpy@s:
   486                           	opt stack 0
   487                           
   488                           ; 2 bytes @ 0x8
   489  00009F                     	ds	2
   490  0000A1                     i2send_msg@qptr:
   491                           	opt stack 0
   492                           
   493                           ; 2 bytes @ 0xA
   494  0000A1                     	ds	2
   495  0000A3                     i2send_msg@length:
   496                           	opt stack 0
   497                           
   498                           ; 1 bytes @ 0xC
   499  0000A3                     	ds	1
   500  0000A4                     i2send_msg@msgtype:
   501                           	opt stack 0
   502                           
   503                           ; 1 bytes @ 0xD
   504  0000A4                     	ds	1
   505  0000A5                     i2send_msg@data:
   506                           	opt stack 0
   507                           
   508                           ; 2 bytes @ 0xE
   509  0000A5                     	ds	2
   510  0000A7                     ??i2_send_msg:
   511                           
   512                           ; 0 bytes @ 0x10
   513  0000A7                     	ds	1
   514  0000A8                     i2send_msg@tlength:
   515                           	opt stack 0
   516                           
   517                           ; 2 bytes @ 0x11
   518  0000A8                     	ds	2
   519  0000AA                     i2send_msg@slot:
   520                           	opt stack 0
   521                           
   522                           ; 1 bytes @ 0x13
   523  0000AA                     	ds	1
   524  0000AB                     i2send_msg@qmsg:
   525                           	opt stack 0
   526                           
   527                           ; 2 bytes @ 0x14
   528  0000AB                     	ds	2
   529  0000AD                     ToMainHigh_sendmsg@msgtype:
   530                           	opt stack 0
   531                           
   532                           ; 1 bytes @ 0x16
   533  0000AD                     	ds	1
   534  0000AE                     ToMainHigh_sendmsg@data:
   535                           	opt stack 0
   536                           
   537                           ; 2 bytes @ 0x17
   538  0000AE                     	ds	2
   539  0000B0                     ToMainHigh_sendmsg@length:
   540                           	opt stack 0
   541                           
   542                           ; 1 bytes @ 0x19
   543  0000B0                     	ds	1
   544  0000B1                     ??_i2c_int_handler:
   545                           
   546                           ; 0 bytes @ 0x1A
   547  0000B1                     	ds	1
   548  0000B2                     i2c_int_handler@error_buf:
   549                           	opt stack 0
   550                           
   551                           ; 3 bytes @ 0x1B
   552  0000B2                     	ds	3
   553  0000B5                     i2c_int_handler@data_written:
   554                           	opt stack 0
   555                           
   556                           ; 1 bytes @ 0x1E
   557  0000B5                     	ds	1
   558  0000B6                     i2c_int_handler@overrun_error:
   559                           	opt stack 0
   560                           
   561                           ; 1 bytes @ 0x1F
   562  0000B6                     	ds	1
   563  0000B7                     i2c_int_handler@i2c_data:
   564                           	opt stack 0
   565                           
   566                           ; 1 bytes @ 0x20
   567  0000B7                     	ds	1
   568  0000B8                     i2c_int_handler@msg_to_send:
   569                           	opt stack 0
   570                           
   571                           ; 1 bytes @ 0x21
   572  0000B8                     	ds	1
   573  0000B9                     i2c_int_handler@msg_ready:
   574                           	opt stack 0
   575                           
   576                           ; 1 bytes @ 0x22
   577  0000B9                     	ds	1
   578  0000BA                     i2c_int_handler@data_read:
   579                           	opt stack 0
   580                           
   581                           ; 1 bytes @ 0x23
   582  0000BA                     	ds	1
   583  0000BB                     ??_InterruptHandlerHigh:
   584                           
   585                           ; 0 bytes @ 0x24
   586  0000BB                     	ds	14
   587  0000C9                     ??_send_msg:
   588  0000C9                     ??_recv_msg:
   589  0000C9                     ?_in_high_int:
   590                           	opt stack 0
   591  0000C9                     i2c_configure_slave@addr:
   592                           	opt stack 0
   593  0000C9                     OpenTimer0@config:
   594                           	opt stack 0
   595  0000C9                     OpenTimer1@config1:
   596                           	opt stack 0
   597  0000C9                     Delay1KTCYx@unit:
   598                           	opt stack 0
   599  0000C9                     ___lwmod@counter:
   600                           	opt stack 0
   601  0000C9                     init_queue@qptr:
   602                           	opt stack 0
   603  0000C9                     check_msg@qptr:
   604                           	opt stack 0
   605  0000C9                     start_i2c_slave_reply@msg:
   606                           	opt stack 0
   607  0000C9                     init_i2c@ic:
   608                           	opt stack 0
   609  0000C9                     init_uart_recv@uc:
   610                           	opt stack 0
   611  0000C9                     timer0_lthread@msgval:
   612                           	opt stack 0
   613  0000C9                     init_timer1_lthread@tptr:
   614                           	opt stack 0
   615  0000C9                     Open1USART@spbrg:
   616                           	opt stack 0
   617                           
   618                           ; 2 bytes @ 0x32
   619  0000C9                     	ds	1
   620  0000CA                     ??_OpenTimer1:
   621  0000CA                     FromMainLow_sendmsg@length:
   622                           	opt stack 0
   623  0000CA                     FromMainHigh_sendmsg@length:
   624                           	opt stack 0
   625                           
   626                           ; 1 bytes @ 0x33
   627  0000CA                     	ds	1
   628  0000CB                     ??_check_msg:
   629  0000CB                     init_queue@i:
   630                           	opt stack 0
   631  0000CB                     ToMainLow_recvmsg@maxlength:
   632                           	opt stack 0
   633  0000CB                     ToMainHigh_recvmsg@maxlength:
   634                           	opt stack 0
   635  0000CB                     start_i2c_slave_reply@length:
   636                           	opt stack 0
   637  0000CB                     timer1_lthread@retval:
   638                           	opt stack 0
   639  0000CB                     OpenTimer1@config:
   640                           	opt stack 0
   641  0000CB                     Open1USART@config:
   642                           	opt stack 0
   643                           
   644                           ; 1 bytes @ 0x34
   645  0000CB                     	ds	1
   646  0000CC                     tblptru	equ	0xFF8
   647                           postinc0	equ	0xFEE
   648                           wreg	equ	0xFE8
   649                           
   650                           ; 0 bytes @ 0x35
   651                           
   652                           	psect	cstackCOMRAM
   653  000001                     __pcstackCOMRAM:
   654                           	opt stack 0
   655  000001                     ?_ReadTimer1:
   656                           	opt stack 0
   657  000001                     Read1USART@data:
   658                           	opt stack 0
   659  000001                     WriteTimer1@timer1:
   660                           	opt stack 0
   661  000001                     i1memcpy@d1:
   662                           	opt stack 0
   663                           
   664                           ; 2 bytes @ 0x0
   665  000001                     	ds	2
   666  000003                     ReadTimer1@timer:
   667                           	opt stack 0
   668  000003                     WriteTimer1@timer:
   669                           	opt stack 0
   670  000003                     i1memcpy@s1:
   671                           	opt stack 0
   672                           
   673                           ; 2 bytes @ 0x2
   674  000003                     	ds	2
   675  000005                     timer1_int_handler@result:
   676                           	opt stack 0
   677  000005                     i1memcpy@n:
   678                           	opt stack 0
   679                           
   680                           ; 2 bytes @ 0x4
   681  000005                     	ds	2
   682  000007                     timer1_int_handler@forward:
   683                           	opt stack 0
   684  000007                     i1memcpy@d:
   685                           	opt stack 0
   686                           
   687                           ; 2 bytes @ 0x6
   688  000007                     	ds	1
   689  000008                     timer1_int_handler@left:
   690                           	opt stack 0
   691                           
   692                           ; 1 bytes @ 0x7
   693  000008                     	ds	1
   694  000009                     timer1_int_handler@right:
   695                           	opt stack 0
   696  000009                     i1memcpy@s:
   697                           	opt stack 0
   698                           
   699                           ; 2 bytes @ 0x8
   700  000009                     	ds	2
   701  00000B                     i1send_msg@qptr:
   702                           	opt stack 0
   703  00000B                     i1recv_msg@qptr:
   704                           	opt stack 0
   705                           
   706                           ; 2 bytes @ 0xA
   707  00000B                     	ds	2
   708  00000D                     i1send_msg@length:
   709                           	opt stack 0
   710  00000D                     i1recv_msg@maxlength:
   711                           	opt stack 0
   712                           
   713                           ; 1 bytes @ 0xC
   714  00000D                     	ds	1
   715  00000E                     i1send_msg@msgtype:
   716                           	opt stack 0
   717  00000E                     i1recv_msg@msgtype:
   718                           	opt stack 0
   719                           
   720                           ; 2 bytes @ 0xD
   721  00000E                     	ds	1
   722  00000F                     i1send_msg@data:
   723                           	opt stack 0
   724                           
   725                           ; 2 bytes @ 0xE
   726  00000F                     	ds	1
   727  000010                     i1recv_msg@data:
   728                           	opt stack 0
   729                           
   730                           ; 2 bytes @ 0xF
   731  000010                     	ds	1
   732  000011                     ??i1_send_msg:
   733                           
   734                           ; 0 bytes @ 0x10
   735  000011                     	ds	1
   736  000012                     ??i1_recv_msg:
   737  000012                     i1send_msg@tlength:
   738                           	opt stack 0
   739                           
   740                           ; 2 bytes @ 0x11
   741  000012                     	ds	2
   742  000014                     i1send_msg@slot:
   743                           	opt stack 0
   744  000014                     i1recv_msg@slot:
   745                           	opt stack 0
   746                           
   747                           ; 1 bytes @ 0x13
   748  000014                     	ds	1
   749  000015                     i1send_msg@qmsg:
   750                           	opt stack 0
   751  000015                     i1recv_msg@tlength:
   752                           	opt stack 0
   753                           
   754                           ; 2 bytes @ 0x14
   755  000015                     	ds	2
   756  000017                     ToMainLow_sendmsg@msgtype:
   757                           	opt stack 0
   758  000017                     i1recv_msg@qmsg:
   759                           	opt stack 0
   760                           
   761                           ; 2 bytes @ 0x16
   762  000017                     	ds	1
   763  000018                     ToMainLow_sendmsg@data:
   764                           	opt stack 0
   765                           
   766                           ; 2 bytes @ 0x17
   767  000018                     	ds	1
   768  000019                     FromMainLow_recvmsg@msgtype:
   769                           	opt stack 0
   770                           
   771                           ; 2 bytes @ 0x18
   772  000019                     	ds	1
   773  00001A                     ToMainLow_sendmsg@length:
   774                           	opt stack 0
   775                           
   776                           ; 1 bytes @ 0x19
   777  00001A                     	ds	1
   778  00001B                     uart_recv_int_handler@readin:
   779                           	opt stack 0
   780  00001B                     FromMainLow_recvmsg@data:
   781                           	opt stack 0
   782                           
   783                           ; 2 bytes @ 0x1A
   784  00001B                     	ds	2
   785  00001D                     FromMainLow_recvmsg@maxlength:
   786                           	opt stack 0
   787                           
   788                           ; 1 bytes @ 0x1C
   789  00001D                     	ds	1
   790  00001E                     ??_uart_trans_int_handler:
   791                           
   792                           ; 0 bytes @ 0x1D
   793  00001E                     	ds	2
   794  000020                     ??_InterruptHandlerLow:
   795                           
   796                           ; 0 bytes @ 0x1F
   797  000020                     	ds	17
   798                           tblptru	equ	0xFF8
   799                           postinc0	equ	0xFEE
   800                           wreg	equ	0xFE8
   801                           
   802 ;;
   803 ;;Main: autosize = 0, tempsize = 0, incstack = 0, save=0
   804 ;;
   805 ;; *************** function _main *****************
   806 ;; Defined at:
   807 ;;		line 72 in file "../src/main.c"
   808 ;; Parameters:    Size  Location     Type
   809 ;;		None
   810 ;; Auto vars:     Size  Location     Type
   811 ;;  forward         2   16[BANK2 ] unsigned char [2]
   812 ;;  ic             31   36[BANK2 ] struct __i2c_comm
   813 ;;  uc             14   21[BANK2 ] struct __uart_comm
   814 ;;  msgbuffer      11    3[BANK2 ] unsigned char [11]
   815 ;;  t1thread_dat    2   18[BANK2 ] struct __timer1_thread_s
   816 ;;  t0thread_dat    2   14[BANK2 ] struct __timer0_thread_s
   817 ;;  k               2    0[BANK2 ] int 
   818 ;;  uthread_data    2    0        struct __uart_thread_str
   819 ;;  length          1   35[BANK2 ] char 
   820 ;;  msgtype         1   20[BANK2 ] unsigned char 
   821 ;;  last_reg_rec    1    2[BANK2 ] unsigned char 
   822 ;;  i               1    0        unsigned char 
   823 ;;  rqst            1    0        char 
   824 ;;  c               1    0        unsigned char 
   825 ;; Return value:  Size  Location     Type
   826 ;;		None               void
   827 ;; Registers used:
   828 ;;		wreg, fsr1l, fsr1h, fsr2l, fsr2h, status,2, status,0, prodl, prodh, cstack
   829 ;; Tracked objects:
   830 ;;		On entry : 0/0
   831 ;;		On exit  : 0/0
   832 ;;		Unchanged: 0/0
   833 ;; Data sizes:     COMRAM   BANK0   BANK1   BANK2   BANK3   BANK4   BANK5   BANK6   BANK7   BANK8   BANK9  BANK10  BANK1
      +1  BANK12  BANK13  BANK14
   834 ;;      Params:         0       0       0       0       0       0       0       0       0       0       0       0       
      +0       0       0       0
   835 ;;      Locals:         0       0       0      67       0       0       0       0       0       0       0       0       
      +0       0       0       0
   836 ;;      Temps:          0       0       0       0       0       0       0       0       0       0       0       0       
      +0       0       0       0
   837 ;;      Totals:         0       0       0      67       0       0       0       0       0       0       0       0       
      +0       0       0       0
   838 ;;Total ram usage:       67 bytes
   839 ;; Hardware stack levels required when called:   14
   840 ;; This function calls:
   841 ;;		_ADC_Init
   842 ;;		_FromMainLow_sendmsg
   843 ;;		_Open1USART
   844 ;;		_OpenTimer0
   845 ;;		_OpenTimer1
   846 ;;		_ToMainHigh_recvmsg
   847 ;;		_ToMainLow_recvmsg
   848 ;;		_block_on_To_msgqueues
   849 ;;		_enable_interrupts
   850 ;;		_i2c_configure_slave
   851 ;;		_init_i2c
   852 ;;		_init_queues
   853 ;;		_init_timer1_lthread
   854 ;;		_init_uart_recv
   855 ;;		_start_i2c_slave_reply
   856 ;;		_timer0_lthread
   857 ;;		_timer1_lthread
   858 ;;		_uart_send
   859 ;; This function is called by:
   860 ;;		Startup code after reset
   861 ;; This function uses a non-reentrant model
   862 ;;
   863                           
   864                           	psect	text0
   865  000630                     __ptext0:
   866                           	opt stack 0
   867  000630                     _main:
   868                           	opt stack 17
   869                           
   870                           ;main.c: 73: char c;
   871                           ;main.c: 74: signed char length;
   872                           ;main.c: 75: signed char rqst;
   873                           ;main.c: 76: unsigned char msgtype;
   874                           ;main.c: 77: unsigned char last_reg_recvd;
   875                           ;main.c: 78: uart_comm uc;
   876                           ;main.c: 79: i2c_comm ic;
   877                           ;main.c: 80: unsigned char msgbuffer[10 + 1];
   878                           ;main.c: 81: unsigned char i;
   879                           ;main.c: 82: int k = 0;
   880                           
   881                           ;incstack = 0
   882  000630  0E00               	movlw	0
   883  000632  0102               	movlb	2	; () banked
   884  000634  6F01               	movwf	(main@k+1)& (0+255),b
   885  000636  0E00               	movlw	0
   886  000638  0102               	movlb	2	; () banked
   887  00063A  6F00               	movwf	main@k& (0+255),b
   888                           
   889                           ;main.c: 83: uart_thread_struct uthread_data;
   890                           ;main.c: 84: timer1_thread_struct t1thread_data;
   891                           ;main.c: 85: timer0_thread_struct t0thread_data;
   892                           ;main.c: 87: OSCCON = 0xE0;
   893  00063C  0EE0               	movlw	224
   894  00063E  6ED3               	movwf	4051,c	;volatile
   895                           
   896                           ; BSR set to: 2
   897                           ;main.c: 88: OSCTUNEbits.PLLEN = 1;
   898  000640  8C9B               	bsf	3995,6,c	;volatile
   899                           
   900                           ; BSR set to: 2
   901                           ;main.c: 91: init_uart_recv(&uc);
   902  000642  0102               	movlb	2	; () banked
   903  000644  0E02               	movlw	high main@uc
   904  000646  0100               	movlb	0	; () banked
   905  000648  6FCA               	movwf	(init_uart_recv@uc+1)& (0+255),b
   906  00064A  0102               	movlb	2	; () banked
   907  00064C  0E15               	movlw	low main@uc
   908  00064E  0100               	movlb	0	; () banked
   909  000650  6FC9               	movwf	init_uart_recv@uc& (0+255),b
   910  000652  EC78  F00B         	call	_init_uart_recv	;wreg free
   911                           
   912                           ;main.c: 94: init_i2c(&ic);
   913  000656  0102               	movlb	2	; () banked
   914  000658  0E02               	movlw	high main@ic
   915  00065A  0100               	movlb	0	; () banked
   916  00065C  6FCA               	movwf	(init_i2c@ic+1)& (0+255),b
   917  00065E  0102               	movlb	2	; () banked
   918  000660  0E24               	movlw	low main@ic
   919  000662  0100               	movlb	0	; () banked
   920  000664  6FC9               	movwf	init_i2c@ic& (0+255),b
   921  000666  EC7A  F008         	call	_init_i2c	;wreg free
   922                           
   923                           ;main.c: 97: init_timer1_lthread(&t1thread_data);
   924  00066A  0102               	movlb	2	; () banked
   925  00066C  0E02               	movlw	high main@t1thread_data
   926  00066E  0100               	movlb	0	; () banked
   927  000670  6FCA               	movwf	(init_timer1_lthread@tptr+1)& (0+255),b
   928  000672  0102               	movlb	2	; () banked
   929  000674  0E12               	movlw	low main@t1thread_data
   930  000676  0100               	movlb	0	; () banked
   931  000678  6FC9               	movwf	init_timer1_lthread@tptr& (0+255),b
   932  00067A  EC3D  F00C         	call	_init_timer1_lthread	;wreg free
   933                           
   934                           ;main.c: 100: init_queues();
   935  00067E  EC44  F008         	call	_init_queues	;wreg free
   936                           
   937                           ;main.c: 112: ADC_Init();
   938  000682  ECA6  F00B         	call	_ADC_Init	;wreg free
   939                           
   940                           ;main.c: 115: OpenTimer0(0b11111111 & 0b10111111 & 0b11011111 & 0b11110110);
   941  000686  0E96               	movlw	150
   942  000688  ECE3  F00B         	call	_OpenTimer0
   943                           
   944                           ;main.c: 116: OpenTimer1(0b11111111 & 0b10011111 & 0b11111111 & 0b11111111 & 0b11111011 
      +                          & 0b11111111,0x0);
   945  00068C  0E00               	movlw	0
   946  00068E  0100               	movlb	0	; () banked
   947  000690  6FC9               	movwf	OpenTimer1@config1& (0+255),b
   948  000692  0E9B               	movlw	155
   949  000694  EC90  F00A         	call	_OpenTimer1
   950                           
   951                           ;main.c: 121: INTCON2bits.TMR0IP = 0;
   952  000698  94F1               	bcf	intcon2,2,c	;volatile
   953                           
   954                           ;main.c: 123: IPR1bits.TMR1IP = 0;
   955  00069A  909F               	bcf	3999,0,c	;volatile
   956                           
   957                           ;main.c: 125: IPR1bits.RCIP = 0;
   958  00069C  9A9F               	bcf	3999,5,c	;volatile
   959                           
   960                           ;main.c: 127: IPR1bits.TXIP = 0;
   961  00069E  989F               	bcf	3999,4,c	;volatile
   962                           
   963                           ;main.c: 129: IPR1bits.SSPIP = 1;
   964  0006A0  869F               	bsf	3999,3,c	;volatile
   965                           
   966                           ;main.c: 138: i2c_configure_slave(0x9E);
   967  0006A2  0E9E               	movlw	158
   968  0006A4  ECBB  F00B         	call	_i2c_configure_slave
   969                           
   970                           ;main.c: 149: PIE1bits.SSPIE = 1;
   971  0006A8  869D               	bsf	3997,3,c	;volatile
   972                           
   973                           ;main.c: 152: Open1USART(0b01111111 & 0b11111111 & 0b11111110 & 0b11111101 &
   974                           ;main.c: 153: 0b11111111 & 0b11101111, 0x19);
   975  0006AA  0E00               	movlw	0
   976  0006AC  0100               	movlb	0	; () banked
   977  0006AE  6FCA               	movwf	(Open1USART@spbrg+1)& (0+255),b
   978  0006B0  0E19               	movlw	25
   979  0006B2  0100               	movlb	0	; () banked
   980  0006B4  6FC9               	movwf	Open1USART@spbrg& (0+255),b
   981  0006B6  0E6C               	movlw	108
   982  0006B8  EC0C  F008         	call	_Open1USART
   983                           
   984                           ;main.c: 157: enable_interrupts();
   985  0006BC  EC7A  F00C         	call	_enable_interrupts	;wreg free
   986                           
   987                           ;main.c: 160: TRISEbits.TRISE0 = 0x0;
   988  0006C0  9096               	bcf	3990,0,c	;volatile
   989                           
   990                           ;main.c: 161: LATEbits.LE0 = 0x0;
   991  0006C2  908D               	bcf	3981,0,c	;volatile
   992                           
   993                           ;main.c: 162: LATEbits.LE0 = 0x1;
   994  0006C4  808D               	bsf	3981,0,c	;volatile
   995                           
   996                           ;main.c: 164: TRISCbits.TRISC7 = 0x1;
   997  0006C6  8E94               	bsf	3988,7,c	;volatile
   998                           
   999                           ;main.c: 165: TRISCbits.TRISC6 = 0x0;
  1000  0006C8  9C94               	bcf	3988,6,c	;volatile
  1001                           
  1002                           ;main.c: 167: SPBRGH1 = 0x00;
  1003  0006CA  0E00               	movlw	0
  1004  0006CC  6E7F               	movwf	3967,c	;volatile
  1005                           
  1006                           ;main.c: 168: SPBRG1 = 0xCF;
  1007  0006CE  0ECF               	movlw	207
  1008  0006D0  6EB0               	movwf	4016,c	;volatile
  1009                           
  1010                           ;main.c: 170: TXSTA1bits.BRGH = 1;
  1011  0006D2  84AD               	bsf	4013,2,c	;volatile
  1012                           
  1013                           ;main.c: 171: BAUDCON1bits.BRG16 = 1;
  1014  0006D4  867E               	bsf	3966,3,c	;volatile
  1015                           
  1016                           ;main.c: 172: TXSTA1bits.SYNC = 0;
  1017  0006D6  98AD               	bcf	4013,4,c	;volatile
  1018                           
  1019                           ;main.c: 173: RCSTA1bits.SPEN = 0x1;
  1020  0006D8  8EAC               	bsf	4012,7,c	;volatile
  1021                           
  1022                           ;main.c: 174: TXSTA1bits.TXEN = 0x1;
  1023  0006DA  8AAD               	bsf	4013,5,c	;volatile
  1024  0006DC                     l3611:
  1025                           
  1026                           ;main.c: 191: block_on_To_msgqueues();
  1027  0006DC  ECDF  F008         	call	_block_on_To_msgqueues	;wreg free
  1028                           
  1029                           ;main.c: 198: length = ToMainHigh_recvmsg(10, &msgtype, (void *) msgbuffer);
  1030  0006E0  0102               	movlb	2	; () banked
  1031  0006E2  0E02               	movlw	high main@msgtype
  1032  0006E4  0101               	movlb	1	; () banked
  1033  0006E6  6FB9               	movwf	(ToMainHigh_recvmsg@msgtype+1)& (0+255),b
  1034  0006E8  0102               	movlb	2	; () banked
  1035  0006EA  0E14               	movlw	low main@msgtype
  1036  0006EC  0101               	movlb	1	; () banked
  1037  0006EE  6FB8               	movwf	ToMainHigh_recvmsg@msgtype& (0+255),b
  1038  0006F0  0102               	movlb	2	; () banked
  1039  0006F2  0E02               	movlw	high main@msgbuffer
  1040  0006F4  0101               	movlb	1	; () banked
  1041  0006F6  6FBB               	movwf	(ToMainHigh_recvmsg@data+1)& (0+255),b
  1042  0006F8  0102               	movlb	2	; () banked
  1043  0006FA  0E03               	movlw	low main@msgbuffer
  1044  0006FC  0101               	movlb	1	; () banked
  1045  0006FE  6FBA               	movwf	ToMainHigh_recvmsg@data& (0+255),b
  1046  000700  0E0A               	movlw	10
  1047  000702  ECE5  F00A         	call	_ToMainHigh_recvmsg
  1048  000706  0102               	movlb	2	; () banked
  1049  000708  6F23               	movwf	main@length& (0+255),b
  1050                           
  1051                           ; BSR set to: 2
  1052                           ;main.c: 199: if (length < 0) {
  1053  00070A  0102               	movlb	2	; () banked
  1054  00070C  BF23               	btfsc	main@length& (0+255),7,b
  1055  00070E  D048               	goto	l3629
  1056  000710  D03B               	goto	l3627
  1057  000712                     l3619:
  1058                           
  1059                           ; BSR set to: 2
  1060                           ;main.c: 207: timer0_lthread(&t0thread_data, msgtype, length, msgbuffer);
  1061  000712  0102               	movlb	2	; () banked
  1062  000714  0E02               	movlw	high main@t0thread_data
  1063  000716  0101               	movlb	1	; () banked
  1064  000718  6FA3               	movwf	(timer0_lthread@tptr+1)& (0+255),b
  1065  00071A  0102               	movlb	2	; () banked
  1066  00071C  0E0E               	movlw	low main@t0thread_data
  1067  00071E  0101               	movlb	1	; () banked
  1068  000720  6FA2               	movwf	timer0_lthread@tptr& (0+255),b
  1069  000722  0102               	movlb	2	; () banked
  1070  000724  0101               	movlb	1	; () banked
  1071  000726  C214  F1A4         	movff	main@msgtype,timer0_lthread@msgtype
  1072  00072A  0101               	movlb	1	; () banked
  1073  00072C  6BA5               	clrf	(timer0_lthread@msgtype+1)& (0+255),b
  1074  00072E  0102               	movlb	2	; () banked
  1075  000730  5123               	movf	main@length& (0+255),w,b
  1076  000732  0101               	movlb	1	; () banked
  1077  000734  6FA6               	movwf	timer0_lthread@length& (0+255),b
  1078  000736  0101               	movlb	1	; () banked
  1079  000738  6BA7               	clrf	(timer0_lthread@length+1)& (0+255),b
  1080  00073A  0101               	movlb	1	; () banked
  1081  00073C  BFA6               	btfsc	timer0_lthread@length& (0+255),7,b
  1082  00073E  07A7               	decf	(timer0_lthread@length+1)& (0+255),f,b
  1083  000740  0102               	movlb	2	; () banked
  1084  000742  0E02               	movlw	high main@msgbuffer
  1085  000744  0101               	movlb	1	; () banked
  1086  000746  6FA9               	movwf	(timer0_lthread@msgbuffer+1)& (0+255),b
  1087  000748  0102               	movlb	2	; () banked
  1088  00074A  0E03               	movlw	low main@msgbuffer
  1089  00074C  0101               	movlb	1	; () banked
  1090  00074E  6FA8               	movwf	timer0_lthread@msgbuffer& (0+255),b
  1091  000750  EC34  F00C         	call	_timer0_lthread	;wreg free
  1092                           
  1093                           ;main.c: 208: break;
  1094  000754  D025               	goto	l3629
  1095  000756                     l124:
  1096                           
  1097                           ; BSR set to: 2
  1098                           ;main.c: 213: last_reg_recvd = msgbuffer[0];
  1099  000756  C203  F202         	movff	main@msgbuffer,main@last_reg_recvd
  1100                           
  1101                           ;main.c: 214: break;
  1102  00075A  D022               	goto	l3629
  1103  00075C                     l3621:
  1104                           
  1105                           ; BSR set to: 2
  1106                           ;main.c: 217: {
  1107                           ;main.c: 223: unsigned char forward[2];
  1108                           ;main.c: 224: length = 2;
  1109  00075C  0E02               	movlw	2
  1110  00075E  0102               	movlb	2	; () banked
  1111  000760  6F23               	movwf	main@length& (0+255),b
  1112                           
  1113                           ;main.c: 225: forward[0] = 0x0A;
  1114  000762  0E0A               	movlw	10
  1115  000764  0102               	movlb	2	; () banked
  1116  000766  6F10               	movwf	main@forward& (0+255),b
  1117                           
  1118                           ;main.c: 226: forward[1] = 0x0B;
  1119  000768  0E0B               	movlw	11
  1120  00076A  0102               	movlb	2	; () banked
  1121  00076C  6F11               	movwf	(main@forward+1)& (0+255),b
  1122                           
  1123                           ; BSR set to: 2
  1124                           ;main.c: 230: start_i2c_slave_reply(length, forward);
  1125  00076E  0102               	movlb	2	; () banked
  1126  000770  0E02               	movlw	high main@forward
  1127  000772  0100               	movlb	0	; () banked
  1128  000774  6FCA               	movwf	(start_i2c_slave_reply@msg+1)& (0+255),b
  1129  000776  0102               	movlb	2	; () banked
  1130  000778  0E10               	movlw	low main@forward
  1131  00077A  0100               	movlb	0	; () banked
  1132  00077C  6FC9               	movwf	start_i2c_slave_reply@msg& (0+255),b
  1133  00077E  0102               	movlb	2	; () banked
  1134  000780  5123               	movf	main@length& (0+255),w,b
  1135  000782  ECEE  F004         	call	_start_i2c_slave_reply
  1136                           
  1137                           ;main.c: 231: break;
  1138  000786  D00C               	goto	l3629
  1139  000788                     l3627:
  1140  000788  0102               	movlb	2	; () banked
  1141  00078A  5114               	movf	main@msgtype& (0+255),w,b
  1142                           
  1143                           ; Switch size 1, requested type "space"
  1144                           ; Number of cases is 4, Range of values is 20 to 23
  1145                           ; switch strategies available:
  1146                           ; Name         Instructions Cycles
  1147                           ; simple_byte           13     7 (average)
  1148                           ;	Chosen strategy is simple_byte
  1149  00078C  0A14               	xorlw	20	; case 20
  1150  00078E  B4D8               	btfsc	status,2,c
  1151  000790  D7C0               	goto	l3619
  1152  000792  0A01               	xorlw	1	; case 21
  1153  000794  B4D8               	btfsc	status,2,c
  1154  000796  D7DF               	goto	l124
  1155  000798  0A03               	xorlw	3	; case 22
  1156  00079A  B4D8               	btfsc	status,2,c
  1157  00079C  D7DF               	goto	l3621
  1158  00079E  0A01               	xorlw	1	; case 23
  1159  0007A0                     l3629:
  1160                           
  1161                           ;main.c: 254: }
  1162                           ;main.c: 257: length = ToMainLow_recvmsg(10, &msgtype, (void *) msgbuffer);
  1163  0007A0  0102               	movlb	2	; () banked
  1164  0007A2  0E02               	movlw	high main@msgtype
  1165  0007A4  0101               	movlb	1	; () banked
  1166  0007A6  6FB9               	movwf	(ToMainLow_recvmsg@msgtype+1)& (0+255),b
  1167  0007A8  0102               	movlb	2	; () banked
  1168  0007AA  0E14               	movlw	low main@msgtype
  1169  0007AC  0101               	movlb	1	; () banked
  1170  0007AE  6FB8               	movwf	ToMainLow_recvmsg@msgtype& (0+255),b
  1171  0007B0  0102               	movlb	2	; () banked
  1172  0007B2  0E02               	movlw	high main@msgbuffer
  1173  0007B4  0101               	movlb	1	; () banked
  1174  0007B6  6FBB               	movwf	(ToMainLow_recvmsg@data+1)& (0+255),b
  1175  0007B8  0102               	movlb	2	; () banked
  1176  0007BA  0E03               	movlw	low main@msgbuffer
  1177  0007BC  0101               	movlb	1	; () banked
  1178  0007BE  6FBA               	movwf	ToMainLow_recvmsg@data& (0+255),b
  1179  0007C0  0E0A               	movlw	10
  1180  0007C2  ECCA  F00A         	call	_ToMainLow_recvmsg
  1181  0007C6  0102               	movlb	2	; () banked
  1182  0007C8  6F23               	movwf	main@length& (0+255),b
  1183                           
  1184                           ; BSR set to: 2
  1185                           ;main.c: 258: if (length < 0) {
  1186  0007CA  0102               	movlb	2	; () banked
  1187  0007CC  BF23               	btfsc	main@length& (0+255),7,b
  1188  0007CE  D786               	goto	l3611
  1189  0007D0  D067               	goto	l3643
  1190  0007D2                     l3635:
  1191                           
  1192                           ; BSR set to: 2
  1193                           ;main.c: 266: timer1_lthread(&t1thread_data, msgtype, length, msgbuffer);
  1194  0007D2  0102               	movlb	2	; () banked
  1195  0007D4  0E02               	movlw	high main@t1thread_data
  1196  0007D6  0101               	movlb	1	; () banked
  1197  0007D8  6FBB               	movwf	(timer1_lthread@tptr+1)& (0+255),b
  1198  0007DA  0102               	movlb	2	; () banked
  1199  0007DC  0E12               	movlw	low main@t1thread_data
  1200  0007DE  0101               	movlb	1	; () banked
  1201  0007E0  6FBA               	movwf	timer1_lthread@tptr& (0+255),b
  1202  0007E2  0102               	movlb	2	; () banked
  1203  0007E4  0101               	movlb	1	; () banked
  1204  0007E6  C214  F1BC         	movff	main@msgtype,timer1_lthread@msgtype
  1205  0007EA  0101               	movlb	1	; () banked
  1206  0007EC  6BBD               	clrf	(timer1_lthread@msgtype+1)& (0+255),b
  1207  0007EE  0102               	movlb	2	; () banked
  1208  0007F0  5123               	movf	main@length& (0+255),w,b
  1209  0007F2  0101               	movlb	1	; () banked
  1210  0007F4  6FBE               	movwf	timer1_lthread@length& (0+255),b
  1211  0007F6  0101               	movlb	1	; () banked
  1212  0007F8  6BBF               	clrf	(timer1_lthread@length+1)& (0+255),b
  1213  0007FA  0101               	movlb	1	; () banked
  1214  0007FC  BFBE               	btfsc	timer1_lthread@length& (0+255),7,b
  1215  0007FE  07BF               	decf	(timer1_lthread@length+1)& (0+255),f,b
  1216  000800  0102               	movlb	2	; () banked
  1217  000802  0E02               	movlw	high main@msgbuffer
  1218  000804  0101               	movlb	1	; () banked
  1219  000806  6FC1               	movwf	(timer1_lthread@msgbuffer+1)& (0+255),b
  1220  000808  0102               	movlb	2	; () banked
  1221  00080A  0E03               	movlw	low main@msgbuffer
  1222  00080C  0101               	movlb	1	; () banked
  1223  00080E  6FC0               	movwf	timer1_lthread@msgbuffer& (0+255),b
  1224  000810  EC70  F009         	call	_timer1_lthread	;wreg free
  1225                           
  1226                           ;main.c: 267: break;
  1227  000814  D763               	goto	l3611
  1228  000816                     l3637:
  1229                           
  1230                           ;main.c: 279: ToMainLow_recvmsg(length, 32, (void *) msgbuffer);
  1231  000816  0E00               	movlw	0
  1232  000818  0101               	movlb	1	; () banked
  1233  00081A  6FB9               	movwf	(ToMainLow_recvmsg@msgtype+1)& (0+255),b
  1234  00081C  0E20               	movlw	32
  1235  00081E  0101               	movlb	1	; () banked
  1236  000820  6FB8               	movwf	ToMainLow_recvmsg@msgtype& (0+255),b
  1237  000822  0102               	movlb	2	; () banked
  1238  000824  0E02               	movlw	high main@msgbuffer
  1239  000826  0101               	movlb	1	; () banked
  1240  000828  6FBB               	movwf	(ToMainLow_recvmsg@data+1)& (0+255),b
  1241  00082A  0102               	movlb	2	; () banked
  1242  00082C  0E03               	movlw	low main@msgbuffer
  1243  00082E  0101               	movlb	1	; () banked
  1244  000830  6FBA               	movwf	ToMainLow_recvmsg@data& (0+255),b
  1245  000832  0102               	movlb	2	; () banked
  1246  000834  5123               	movf	main@length& (0+255),w,b
  1247  000836  ECCA  F00A         	call	_ToMainLow_recvmsg
  1248                           
  1249                           ;main.c: 280: FromMainLow_sendmsg(length, 24, msgbuffer);
  1250  00083A  0E18               	movlw	24
  1251  00083C  0101               	movlb	1	; () banked
  1252  00083E  6FB7               	movwf	FromMainLow_sendmsg@msgtype& (0+255),b
  1253  000840  0102               	movlb	2	; () banked
  1254  000842  0E02               	movlw	high main@msgbuffer
  1255  000844  0101               	movlb	1	; () banked
  1256  000846  6FB9               	movwf	(FromMainLow_sendmsg@data+1)& (0+255),b
  1257  000848  0102               	movlb	2	; () banked
  1258  00084A  0E03               	movlw	low main@msgbuffer
  1259  00084C  0101               	movlb	1	; () banked
  1260  00084E  6FB8               	movwf	FromMainLow_sendmsg@data& (0+255),b
  1261  000850  0102               	movlb	2	; () banked
  1262  000852  5123               	movf	main@length& (0+255),w,b
  1263  000854  EC4A  F00B         	call	_FromMainLow_sendmsg
  1264                           
  1265                           ;main.c: 281: break;
  1266  000858  D741               	goto	l3611
  1267  00085A                     l3639:
  1268                           
  1269                           ;main.c: 284: ToMainLow_recvmsg(length, 33, (void *) msgbuffer);
  1270  00085A  0E00               	movlw	0
  1271  00085C  0101               	movlb	1	; () banked
  1272  00085E  6FB9               	movwf	(ToMainLow_recvmsg@msgtype+1)& (0+255),b
  1273  000860  0E21               	movlw	33
  1274  000862  0101               	movlb	1	; () banked
  1275  000864  6FB8               	movwf	ToMainLow_recvmsg@msgtype& (0+255),b
  1276  000866  0102               	movlb	2	; () banked
  1277  000868  0E02               	movlw	high main@msgbuffer
  1278  00086A  0101               	movlb	1	; () banked
  1279  00086C  6FBB               	movwf	(ToMainLow_recvmsg@data+1)& (0+255),b
  1280  00086E  0102               	movlb	2	; () banked
  1281  000870  0E03               	movlw	low main@msgbuffer
  1282  000872  0101               	movlb	1	; () banked
  1283  000874  6FBA               	movwf	ToMainLow_recvmsg@data& (0+255),b
  1284  000876  0102               	movlb	2	; () banked
  1285  000878  5123               	movf	main@length& (0+255),w,b
  1286  00087A  ECCA  F00A         	call	_ToMainLow_recvmsg
  1287                           
  1288                           ;main.c: 286: uart_send(1, msgbuffer);
  1289  00087E  0E00               	movlw	0
  1290  000880  0101               	movlb	1	; () banked
  1291  000882  6FBB               	movwf	(uart_send@length+1)& (0+255),b
  1292  000884  0E01               	movlw	1
  1293  000886  0101               	movlb	1	; () banked
  1294  000888  6FBA               	movwf	uart_send@length& (0+255),b
  1295  00088A  0102               	movlb	2	; () banked
  1296  00088C  0E02               	movlw	high main@msgbuffer
  1297  00088E  0101               	movlb	1	; () banked
  1298  000890  6FBD               	movwf	(uart_send@msg_buffer+1)& (0+255),b
  1299  000892  0102               	movlb	2	; () banked
  1300  000894  0E03               	movlw	low main@msgbuffer
  1301  000896  0101               	movlb	1	; () banked
  1302  000898  6FBC               	movwf	uart_send@msg_buffer& (0+255),b
  1303  00089A  ECEF  F009         	call	_uart_send	;wreg free
  1304                           
  1305                           ;main.c: 287: break;
  1306  00089E  D71E               	goto	l3611
  1307  0008A0                     l3643:
  1308  0008A0  0102               	movlb	2	; () banked
  1309  0008A2  5114               	movf	main@msgtype& (0+255),w,b
  1310                           
  1311                           ; Switch size 1, requested type "space"
  1312                           ; Number of cases is 4, Range of values is 30 to 33
  1313                           ; switch strategies available:
  1314                           ; Name         Instructions Cycles
  1315                           ; simple_byte           13     7 (average)
  1316                           ;	Chosen strategy is simple_byte
  1317  0008A4  0A1E               	xorlw	30	; case 30
  1318  0008A6  B4D8               	btfsc	status,2,c
  1319  0008A8  D794               	goto	l3635
  1320  0008AA  0A01               	xorlw	1	; case 31
  1321  0008AC  B4D8               	btfsc	status,2,c
  1322  0008AE  D716               	goto	l3611
  1323  0008B0  0A3F               	xorlw	63	; case 32
  1324  0008B2  B4D8               	btfsc	status,2,c
  1325  0008B4  D7B0               	goto	l3637
  1326  0008B6  0A01               	xorlw	1	; case 33
  1327  0008B8  B4D8               	btfsc	status,2,c
  1328  0008BA  D7CF               	goto	l3639
  1329  0008BC  D70F               	goto	l3611
  1330  0008BE                     __end_of_main:
  1331                           	opt stack 0
  1332                           tblptru	equ	0xFF8
  1333                           intcon2	equ	0xFF1
  1334                           postinc0	equ	0xFEE
  1335                           wreg	equ	0xFE8
  1336                           status	equ	0xFD8
  1337                           
  1338 ;; *************** function _uart_send *****************
  1339 ;; Defined at:
  1340 ;;		line 46 in file "../src/my_uart.c"
  1341 ;; Parameters:    Size  Location     Type
  1342 ;;  length          2   24[BANK1 ] int 
  1343 ;;  msg_buffer      2   26[BANK1 ] PTR unsigned char 
  1344 ;;		 -> main@msgbuffer(11), 
  1345 ;; Auto vars:     Size  Location     Type
  1346 ;;		None
  1347 ;; Return value:  Size  Location     Type
  1348 ;;		None               void
  1349 ;; Registers used:
  1350 ;;		wreg, fsr1l, fsr1h, fsr2l, fsr2h, status,2, status,0, prodl, prodh, cstack
  1351 ;; Tracked objects:
  1352 ;;		On entry : 0/0
  1353 ;;		On exit  : 0/0
  1354 ;;		Unchanged: 0/0
  1355 ;; Data sizes:     COMRAM   BANK0   BANK1   BANK2   BANK3   BANK4   BANK5   BANK6   BANK7   BANK8   BANK9  BANK10  BANK1
      +1  BANK12  BANK13  BANK14
  1356 ;;      Params:         0       0       4       0       0       0       0       0       0       0       0       0       
      +0       0       0       0
  1357 ;;      Locals:         0       0       0       0       0       0       0       0       0       0       0       0       
      +0       0       0       0
  1358 ;;      Temps:          0       0       0       0       0       0       0       0       0       0       0       0       
      +0       0       0       0
  1359 ;;      Totals:         0       0       4       0       0       0       0       0       0       0       0       0       
      +0       0       0       0
  1360 ;;Total ram usage:        4 bytes
  1361 ;; Hardware stack levels used:    1
  1362 ;; Hardware stack levels required when called:   13
  1363 ;; This function calls:
  1364 ;;		_FromMainLow_sendmsg
  1365 ;; This function is called by:
  1366 ;;		_main
  1367 ;; This function uses a non-reentrant model
  1368 ;;
  1369                           
  1370                           	psect	text1
  1371  0013DE                     __ptext1:
  1372                           	opt stack 0
  1373  0013DE                     _uart_send:
  1374                           	opt stack 17
  1375                           
  1376                           ;my_uart.c: 47: uc_ptr->outbufind = 0;
  1377                           
  1378                           ; BSR set to: 2
  1379                           ;incstack = 0
  1380  0013DE  EE20 F00B          	lfsr	2,11
  1381  0013E2  5031               	movf	_uc_ptr,w,c
  1382  0013E4  26D9               	addwf	fsr2l,f,c
  1383  0013E6  5032               	movf	_uc_ptr+1,w,c
  1384  0013E8  22DA               	addwfc	fsr2h,f,c
  1385  0013EA  0E00               	movlw	0
  1386  0013EC  6EDF               	movwf	indf2,c
  1387                           
  1388                           ;my_uart.c: 48: uc_ptr->outbuflen = length;
  1389  0013EE  EE20 F00A          	lfsr	2,10
  1390  0013F2  5031               	movf	_uc_ptr,w,c
  1391  0013F4  26D9               	addwf	fsr2l,f,c
  1392  0013F6  5032               	movf	_uc_ptr+1,w,c
  1393  0013F8  22DA               	addwfc	fsr2h,f,c
  1394  0013FA  0101               	movlb	1	; () banked
  1395  0013FC  C1BA  FFDF         	movff	uart_send@length,indf2
  1396                           
  1397                           ; BSR set to: 1
  1398                           ;my_uart.c: 49: FromMainLow_sendmsg(uc_ptr->outbuflen, 33, (void *) msg_buffer);
  1399  001400  0E21               	movlw	33
  1400  001402  0101               	movlb	1	; () banked
  1401  001404  6FB7               	movwf	FromMainLow_sendmsg@msgtype& (0+255),b
  1402  001406  0101               	movlb	1	; () banked
  1403  001408  C1BD  F1B9         	movff	uart_send@msg_buffer+1,FromMainLow_sendmsg@data+1
  1404  00140C  0101               	movlb	1	; () banked
  1405  00140E  C1BC  F1B8         	movff	uart_send@msg_buffer,FromMainLow_sendmsg@data
  1406  001412  EE20 F00A          	lfsr	2,10
  1407  001416  5031               	movf	_uc_ptr,w,c
  1408  001418  26D9               	addwf	fsr2l,f,c
  1409  00141A  5032               	movf	_uc_ptr+1,w,c
  1410  00141C  22DA               	addwfc	fsr2h,f,c
  1411  00141E  50DF               	movf	indf2,w,c
  1412  001420  EC4A  F00B         	call	_FromMainLow_sendmsg
  1413                           
  1414                           ;my_uart.c: 50: PIE1bits.TXIE = 1;
  1415  001424  889D               	bsf	3997,4,c	;volatile
  1416  001426  0012               	return	
  1417  001428                     __end_of_uart_send:
  1418                           	opt stack 0
  1419                           tblptru	equ	0xFF8
  1420                           intcon2	equ	0xFF1
  1421                           postinc0	equ	0xFEE
  1422                           wreg	equ	0xFE8
  1423                           indf2	equ	0xFDF
  1424                           fsr2h	equ	0xFDA
  1425                           fsr2l	equ	0xFD9
  1426                           status	equ	0xFD8
  1427                           
  1428 ;; *************** function _FromMainLow_sendmsg *****************
  1429 ;; Defined at:
  1430 ;;		line 214 in file "../src/messages.c"
  1431 ;; Parameters:    Size  Location     Type
  1432 ;;  length          1    wreg     unsigned char 
  1433 ;;  msgtype         1   21[BANK1 ] unsigned char 
  1434 ;;  data            2   22[BANK1 ] PTR void 
  1435 ;;		 -> main@msgbuffer(11), 
  1436 ;; Auto vars:     Size  Location     Type
  1437 ;;  length          1   51[BANK0 ] unsigned char 
  1438 ;; Return value:  Size  Location     Type
  1439 ;;                  1    wreg      char 
  1440 ;; Registers used:
  1441 ;;		wreg, fsr1l, fsr1h, fsr2l, fsr2h, status,2, status,0, prodl, prodh, cstack
  1442 ;; Tracked objects:
  1443 ;;		On entry : 0/0
  1444 ;;		On exit  : 0/0
  1445 ;;		Unchanged: 0/0
  1446 ;; Data sizes:     COMRAM   BANK0   BANK1   BANK2   BANK3   BANK4   BANK5   BANK6   BANK7   BANK8   BANK9  BANK10  BANK1
      +1  BANK12  BANK13  BANK14
  1447 ;;      Params:         0       0       3       0       0       0       0       0       0       0       0       0       
      +0       0       0       0
  1448 ;;      Locals:         0       1       0       0       0       0       0       0       0       0       0       0       
      +0       0       0       0
  1449 ;;      Temps:          0       0       0       0       0       0       0       0       0       0       0       0       
      +0       0       0       0
  1450 ;;      Totals:         0       1       3       0       0       0       0       0       0       0       0       0       
      +0       0       0       0
  1451 ;;Total ram usage:        4 bytes
  1452 ;; Hardware stack levels used:    1
  1453 ;; Hardware stack levels required when called:   12
  1454 ;; This function calls:
  1455 ;;		_send_msg
  1456 ;; This function is called by:
  1457 ;;		_main
  1458 ;;		_uart_send
  1459 ;; This function uses a non-reentrant model
  1460 ;;
  1461                           
  1462                           	psect	text2
  1463  001694                     __ptext2:
  1464                           	opt stack 0
  1465  001694                     _FromMainLow_sendmsg:
  1466                           	opt stack 17
  1467                           
  1468                           ;incstack = 0
  1469                           ;FromMainLow_sendmsg@length stored from wreg
  1470  001694  0100               	movlb	0	; () banked
  1471  001696  6FCA               	movwf	FromMainLow_sendmsg@length& (0+255),b
  1472                           
  1473                           ; BSR set to: 0
  1474                           ;messages.c: 220: return (send_msg(&FromMainLow_MQ, length, msgtype, data));
  1475                           ;	Return value of _FromMainLow_sendmsg is never used
  1476  001698  0101               	movlb	1	; () banked
  1477  00169A  0E01               	movlw	high _FromMainLow_MQ
  1478  00169C  0101               	movlb	1	; () banked
  1479  00169E  6FAD               	movwf	(send_msg@qptr+1)& (0+255),b
  1480  0016A0  0101               	movlb	1	; () banked
  1481  0016A2  0E00               	movlw	low _FromMainLow_MQ
  1482  0016A4  0101               	movlb	1	; () banked
  1483  0016A6  6FAC               	movwf	send_msg@qptr& (0+255),b
  1484  0016A8  C0CA  F1AE         	movff	FromMainLow_sendmsg@length,send_msg@length
  1485  0016AC  C1B7  F1AF         	movff	FromMainLow_sendmsg@msgtype,send_msg@msgtype
  1486  0016B0  0101               	movlb	1	; () banked
  1487  0016B2  C1B9  F1B1         	movff	FromMainLow_sendmsg@data+1,send_msg@data+1
  1488  0016B6  0101               	movlb	1	; () banked
  1489  0016B8  C1B8  F1B0         	movff	FromMainLow_sendmsg@data,send_msg@data
  1490  0016BC  EC70  F005         	call	_send_msg	;wreg free
  1491  0016C0  0012               	return	
  1492  0016C2                     __end_of_FromMainLow_sendmsg:
  1493                           	opt stack 0
  1494                           tblptru	equ	0xFF8
  1495                           intcon2	equ	0xFF1
  1496                           postinc0	equ	0xFEE
  1497                           wreg	equ	0xFE8
  1498                           indf2	equ	0xFDF
  1499                           fsr2h	equ	0xFDA
  1500                           fsr2l	equ	0xFD9
  1501                           status	equ	0xFD8
  1502                           
  1503 ;; *************** function _timer1_lthread *****************
  1504 ;; Defined at:
  1505 ;;		line 14 in file "../src/timer1_thread.c"
  1506 ;; Parameters:    Size  Location     Type
  1507 ;;  tptr            2   24[BANK1 ] PTR struct __timer1_thre
  1508 ;;		 -> main@t1thread_data(2), 
  1509 ;;  msgtype         2   26[BANK1 ] int 
  1510 ;;  length          2   28[BANK1 ] int 
  1511 ;;  msgbuffer       2   30[BANK1 ] PTR unsigned char 
  1512 ;;		 -> main@msgbuffer(11), 
  1513 ;; Auto vars:     Size  Location     Type
  1514 ;;  retval          1   52[BANK0 ] char 
  1515 ;; Return value:  Size  Location     Type
  1516 ;;                  2   24[BANK1 ] int 
  1517 ;; Registers used:
  1518 ;;		wreg, fsr1l, fsr1h, fsr2l, fsr2h, status,2, status,0, prodl, prodh, cstack
  1519 ;; Tracked objects:
  1520 ;;		On entry : 0/0
  1521 ;;		On exit  : 0/0
  1522 ;;		Unchanged: 0/0
  1523 ;; Data sizes:     COMRAM   BANK0   BANK1   BANK2   BANK3   BANK4   BANK5   BANK6   BANK7   BANK8   BANK9  BANK10  BANK1
      +1  BANK12  BANK13  BANK14
  1524 ;;      Params:         0       0       8       0       0       0       0       0       0       0       0       0       
      +0       0       0       0
  1525 ;;      Locals:         0       1       0       0       0       0       0       0       0       0       0       0       
      +0       0       0       0
  1526 ;;      Temps:          0       0       0       0       0       0       0       0       0       0       0       0       
      +0       0       0       0
  1527 ;;      Totals:         0       1       8       0       0       0       0       0       0       0       0       0       
      +0       0       0       0
  1528 ;;Total ram usage:        9 bytes
  1529 ;; Hardware stack levels used:    1
  1530 ;; Hardware stack levels required when called:   13
  1531 ;; This function calls:
  1532 ;;		_FromMainHigh_sendmsg
  1533 ;;		___lwmod
  1534 ;; This function is called by:
  1535 ;;		_main
  1536 ;; This function uses a non-reentrant model
  1537 ;;
  1538                           
  1539                           	psect	text3
  1540  0012E0                     __ptext3:
  1541                           	opt stack 0
  1542  0012E0                     _timer1_lthread:
  1543                           	opt stack 17
  1544                           
  1545                           ;timer1_thread.c: 15: signed char retval;
  1546                           ;timer1_thread.c: 17: tptr->msgcount++;
  1547                           
  1548                           ;incstack = 0
  1549  0012E0  C1BA  FFD9         	movff	timer1_lthread@tptr,fsr2l
  1550  0012E4  C1BB  FFDA         	movff	timer1_lthread@tptr+1,fsr2h
  1551  0012E8  2ADE               	incf	postinc2,f,c
  1552  0012EA  0E00               	movlw	0
  1553  0012EC  22DD               	addwfc	postdec2,f,c
  1554                           
  1555                           ;timer1_thread.c: 20: if ((tptr->msgcount % 10) == 9) {
  1556  0012EE  C1BA  FFD9         	movff	timer1_lthread@tptr,fsr2l
  1557  0012F2  C1BB  FFDA         	movff	timer1_lthread@tptr+1,fsr2h
  1558  0012F6  0101               	movlb	1	; () banked
  1559  0012F8  CFDE F1A2          	movff	postinc2,___lwmod@dividend
  1560  0012FC  0101               	movlb	1	; () banked
  1561  0012FE  CFDD F1A3          	movff	postdec2,___lwmod@dividend+1
  1562  001302  0E00               	movlw	0
  1563  001304  0101               	movlb	1	; () banked
  1564  001306  6FA5               	movwf	(___lwmod@divisor+1)& (0+255),b
  1565  001308  0E0A               	movlw	10
  1566  00130A  0101               	movlb	1	; () banked
  1567  00130C  6FA4               	movwf	___lwmod@divisor& (0+255),b
  1568  00130E  EC10  F009         	call	___lwmod	;wreg free
  1569  001312  0101               	movlb	1	; () banked
  1570  001314  51A2               	movf	?___lwmod& (0+255),w,b
  1571  001316  0A09               	xorlw	9
  1572  001318  0101               	movlb	1	; () banked
  1573  00131A  11A3               	iorwf	(?___lwmod+1)& (0+255),w,b
  1574  00131C  A4D8               	btfss	status,2,c
  1575  00131E  0012               	return	
  1576                           
  1577                           ; BSR set to: 1
  1578                           ;timer1_thread.c: 21: retval = FromMainHigh_sendmsg(sizeof (tptr->msgcount), 10, (void *
      +                          ) &(tptr->msgcount));
  1579  001320  0E0A               	movlw	10
  1580  001322  0101               	movlb	1	; () banked
  1581  001324  6FB7               	movwf	FromMainHigh_sendmsg@msgtype& (0+255),b
  1582  001326  0101               	movlb	1	; () banked
  1583  001328  C1BB  F1B9         	movff	timer1_lthread@tptr+1,FromMainHigh_sendmsg@data+1
  1584  00132C  0101               	movlb	1	; () banked
  1585  00132E  C1BA  F1B8         	movff	timer1_lthread@tptr,FromMainHigh_sendmsg@data
  1586  001332  0E02               	movlw	2
  1587  001334  EC61  F00B         	call	_FromMainHigh_sendmsg
  1588  001338  0100               	movlb	0	; () banked
  1589  00133A  6FCB               	movwf	timer1_lthread@retval& (0+255),b
  1590  00133C  0012               	return	
  1591  00133E                     __end_of_timer1_lthread:
  1592                           	opt stack 0
  1593                           tblptru	equ	0xFF8
  1594                           intcon2	equ	0xFF1
  1595                           postinc0	equ	0xFEE
  1596                           wreg	equ	0xFE8
  1597                           indf2	equ	0xFDF
  1598                           postinc2	equ	0xFDE
  1599                           postdec2	equ	0xFDD
  1600                           fsr2h	equ	0xFDA
  1601                           fsr2l	equ	0xFD9
  1602                           status	equ	0xFD8
  1603                           
  1604 ;; *************** function ___lwmod *****************
  1605 ;; Defined at:
  1606 ;;		line 8 in file "C:\Program Files (x86)\Microchip\xc8\v1.33\sources\common\lwmod.c"
  1607 ;; Parameters:    Size  Location     Type
  1608 ;;  dividend        2    0[BANK1 ] unsigned int 
  1609 ;;  divisor         2    2[BANK1 ] unsigned int 
  1610 ;; Auto vars:     Size  Location     Type
  1611 ;;  counter         1   50[BANK0 ] unsigned char 
  1612 ;; Return value:  Size  Location     Type
  1613 ;;                  2    0[BANK1 ] unsigned int 
  1614 ;; Registers used:
  1615 ;;		wreg, status,2, status,0
  1616 ;; Tracked objects:
  1617 ;;		On entry : 0/0
  1618 ;;		On exit  : 0/0
  1619 ;;		Unchanged: 0/0
  1620 ;; Data sizes:     COMRAM   BANK0   BANK1   BANK2   BANK3   BANK4   BANK5   BANK6   BANK7   BANK8   BANK9  BANK10  BANK1
      +1  BANK12  BANK13  BANK14
  1621 ;;      Params:         0       0       4       0       0       0       0       0       0       0       0       0       
      +0       0       0       0
  1622 ;;      Locals:         0       1       0       0       0       0       0       0       0       0       0       0       
      +0       0       0       0
  1623 ;;      Temps:          0       0       0       0       0       0       0       0       0       0       0       0       
      +0       0       0       0
  1624 ;;      Totals:         0       1       4       0       0       0       0       0       0       0       0       0       
      +0       0       0       0
  1625 ;;Total ram usage:        5 bytes
  1626 ;; Hardware stack levels used:    1
  1627 ;; Hardware stack levels required when called:   10
  1628 ;; This function calls:
  1629 ;;		Nothing
  1630 ;; This function is called by:
  1631 ;;		_timer1_lthread
  1632 ;; This function uses a non-reentrant model
  1633 ;;
  1634                           
  1635                           	psect	text4
  1636  001220                     __ptext4:
  1637                           	opt stack 0
  1638  001220                     ___lwmod:
  1639                           	opt stack 19
  1640                           
  1641                           ;incstack = 0
  1642  001220  0101               	movlb	1	; () banked
  1643  001222  51A5               	movf	(___lwmod@divisor+1)& (0+255),w,b
  1644  001224  11A4               	iorwf	___lwmod@divisor& (0+255),w,b
  1645  001226  B4D8               	btfsc	status,2,c
  1646  001228  D026               	goto	l1060
  1647                           
  1648                           ; BSR set to: 1
  1649  00122A  0E01               	movlw	1
  1650  00122C  0100               	movlb	0	; () banked
  1651  00122E  6FC9               	movwf	___lwmod@counter& (0+255),b
  1652  001230  D006               	goto	l3157
  1653  001232                     l3155:
  1654  001232  0101               	movlb	1	; () banked
  1655  001234  90D8               	bcf	status,0,c
  1656  001236  37A4               	rlcf	___lwmod@divisor& (0+255),f,b
  1657  001238  37A5               	rlcf	(___lwmod@divisor+1)& (0+255),f,b
  1658  00123A  0100               	movlb	0	; () banked
  1659  00123C  2BC9               	incf	___lwmod@counter& (0+255),f,b
  1660  00123E                     l3157:
  1661                           
  1662                           ; BSR set to: 0
  1663  00123E  0101               	movlb	1	; () banked
  1664  001240  AFA5               	btfss	(___lwmod@divisor+1)& (0+255),7,b
  1665  001242  D7F7               	goto	l3155
  1666  001244                     l3159:
  1667  001244  0101               	movlb	1	; () banked
  1668  001246  51A4               	movf	___lwmod@divisor& (0+255),w,b
  1669  001248  0101               	movlb	1	; () banked
  1670  00124A  5DA2               	subwf	___lwmod@dividend& (0+255),w,b
  1671  00124C  0101               	movlb	1	; () banked
  1672  00124E  51A5               	movf	(___lwmod@divisor+1)& (0+255),w,b
  1673  001250  0101               	movlb	1	; () banked
  1674  001252  59A3               	subwfb	(___lwmod@dividend+1)& (0+255),w,b
  1675  001254  A0D8               	btfss	status,0,c
  1676  001256  D008               	goto	l3163
  1677                           
  1678                           ; BSR set to: 1
  1679  001258  0101               	movlb	1	; () banked
  1680  00125A  51A4               	movf	___lwmod@divisor& (0+255),w,b
  1681  00125C  0101               	movlb	1	; () banked
  1682  00125E  5FA2               	subwf	___lwmod@dividend& (0+255),f,b
  1683  001260  0101               	movlb	1	; () banked
  1684  001262  51A5               	movf	(___lwmod@divisor+1)& (0+255),w,b
  1685  001264  0101               	movlb	1	; () banked
  1686  001266  5BA3               	subwfb	(___lwmod@dividend+1)& (0+255),f,b
  1687  001268                     l3163:
  1688                           
  1689                           ; BSR set to: 1
  1690  001268  0101               	movlb	1	; () banked
  1691  00126A  90D8               	bcf	status,0,c
  1692  00126C  33A5               	rrcf	(___lwmod@divisor+1)& (0+255),f,b
  1693  00126E  33A4               	rrcf	___lwmod@divisor& (0+255),f,b
  1694                           
  1695                           ; BSR set to: 1
  1696  001270  0100               	movlb	0	; () banked
  1697  001272  2FC9               	decfsz	___lwmod@counter& (0+255),f,b
  1698  001274  D7E7               	goto	l3159
  1699  001276                     l1060:
  1700  001276  C1A2  F1A2         	movff	___lwmod@dividend,?___lwmod
  1701  00127A  C1A3  F1A3         	movff	___lwmod@dividend+1,?___lwmod+1
  1702  00127E  0012               	return	
  1703  001280                     __end_of___lwmod:
  1704                           	opt stack 0
  1705                           tblptru	equ	0xFF8
  1706                           intcon2	equ	0xFF1
  1707                           postinc0	equ	0xFEE
  1708                           wreg	equ	0xFE8
  1709                           indf2	equ	0xFDF
  1710                           postinc2	equ	0xFDE
  1711                           postdec2	equ	0xFDD
  1712                           fsr2h	equ	0xFDA
  1713                           fsr2l	equ	0xFD9
  1714                           status	equ	0xFD8
  1715                           
  1716 ;; *************** function _FromMainHigh_sendmsg *****************
  1717 ;; Defined at:
  1718 ;;		line 238 in file "../src/messages.c"
  1719 ;; Parameters:    Size  Location     Type
  1720 ;;  length          1    wreg     unsigned char 
  1721 ;;  msgtype         1   21[BANK1 ] unsigned char 
  1722 ;;  data            2   22[BANK1 ] PTR void 
  1723 ;;		 -> main@t1thread_data(2), 
  1724 ;; Auto vars:     Size  Location     Type
  1725 ;;  length          1   51[BANK0 ] unsigned char 
  1726 ;; Return value:  Size  Location     Type
  1727 ;;                  1    wreg      char 
  1728 ;; Registers used:
  1729 ;;		wreg, fsr1l, fsr1h, fsr2l, fsr2h, status,2, status,0, prodl, prodh, cstack
  1730 ;; Tracked objects:
  1731 ;;		On entry : 0/0
  1732 ;;		On exit  : 0/0
  1733 ;;		Unchanged: 0/0
  1734 ;; Data sizes:     COMRAM   BANK0   BANK1   BANK2   BANK3   BANK4   BANK5   BANK6   BANK7   BANK8   BANK9  BANK10  BANK1
      +1  BANK12  BANK13  BANK14
  1735 ;;      Params:         0       0       3       0       0       0       0       0       0       0       0       0       
      +0       0       0       0
  1736 ;;      Locals:         0       1       0       0       0       0       0       0       0       0       0       0       
      +0       0       0       0
  1737 ;;      Temps:          0       0       0       0       0       0       0       0       0       0       0       0       
      +0       0       0       0
  1738 ;;      Totals:         0       1       3       0       0       0       0       0       0       0       0       0       
      +0       0       0       0
  1739 ;;Total ram usage:        4 bytes
  1740 ;; Hardware stack levels used:    1
  1741 ;; Hardware stack levels required when called:   12
  1742 ;; This function calls:
  1743 ;;		_send_msg
  1744 ;; This function is called by:
  1745 ;;		_timer1_lthread
  1746 ;; This function uses a non-reentrant model
  1747 ;;
  1748                           
  1749                           	psect	text5
  1750  0016C2                     __ptext5:
  1751                           	opt stack 0
  1752  0016C2                     _FromMainHigh_sendmsg:
  1753                           	opt stack 17
  1754                           
  1755                           ;incstack = 0
  1756                           ;FromMainHigh_sendmsg@length stored from wreg
  1757  0016C2  0100               	movlb	0	; () banked
  1758  0016C4  6FCA               	movwf	FromMainHigh_sendmsg@length& (0+255),b
  1759                           
  1760                           ; BSR set to: 0
  1761                           ;messages.c: 244: return (send_msg(&FromMainHigh_MQ, length, msgtype, data));
  1762  0016C6  0102               	movlb	2	; () banked
  1763  0016C8  0E02               	movlw	high _FromMainHigh_MQ
  1764  0016CA  0101               	movlb	1	; () banked
  1765  0016CC  6FAD               	movwf	(send_msg@qptr+1)& (0+255),b
  1766  0016CE  0102               	movlb	2	; () banked
  1767  0016D0  0E43               	movlw	low _FromMainHigh_MQ
  1768  0016D2  0101               	movlb	1	; () banked
  1769  0016D4  6FAC               	movwf	send_msg@qptr& (0+255),b
  1770  0016D6  C0CA  F1AE         	movff	FromMainHigh_sendmsg@length,send_msg@length
  1771  0016DA  C1B7  F1AF         	movff	FromMainHigh_sendmsg@msgtype,send_msg@msgtype
  1772  0016DE  0101               	movlb	1	; () banked
  1773  0016E0  C1B9  F1B1         	movff	FromMainHigh_sendmsg@data+1,send_msg@data+1
  1774  0016E4  0101               	movlb	1	; () banked
  1775  0016E6  C1B8  F1B0         	movff	FromMainHigh_sendmsg@data,send_msg@data
  1776  0016EA  EC70  F005         	call	_send_msg	;wreg free
  1777  0016EE  0012               	return	
  1778  0016F0                     __end_of_FromMainHigh_sendmsg:
  1779                           	opt stack 0
  1780                           tblptru	equ	0xFF8
  1781                           intcon2	equ	0xFF1
  1782                           postinc0	equ	0xFEE
  1783                           wreg	equ	0xFE8
  1784                           indf2	equ	0xFDF
  1785                           postinc2	equ	0xFDE
  1786                           postdec2	equ	0xFDD
  1787                           fsr2h	equ	0xFDA
  1788                           fsr2l	equ	0xFD9
  1789                           status	equ	0xFD8
  1790                           
  1791 ;; *************** function _send_msg *****************
  1792 ;; Defined at:
  1793 ;;		line 25 in file "../src/messages.c"
  1794 ;; Parameters:    Size  Location     Type
  1795 ;;  qptr            2   10[BANK1 ] PTR struct __msg_queue
  1796 ;;		 -> FromMainHigh_MQ(54), FromMainLow_MQ(54), ToMainHigh_MQ(54), ToMainLow_MQ(54), 
  1797 ;;  length          1   12[BANK1 ] unsigned char 
  1798 ;;  msgtype         1   13[BANK1 ] unsigned char 
  1799 ;;  data            2   14[BANK1 ] PTR void 
  1800 ;;		 -> NULL(0), uart_recv_int_handler@readin(1), i2c_int_handler@error_buf(3), main@msgbuffer(11), 
  1801 ;;		 -> main@t1thread_data(2), main@ic(31), 
  1802 ;; Auto vars:     Size  Location     Type
  1803 ;;  qmsg            2   19[BANK1 ] PTR struct __msg
  1804 ;;		 -> FromMainLow_MQ.queue(52), FromMainHigh_MQ.queue(52), ToMainHigh_MQ.queue(52), ToMainLow_MQ.queue(52), 
  1805 ;;		 -> FromMainHigh_MQ(54), FromMainLow_MQ(54), ToMainHigh_MQ(54), ToMainLow_MQ(54), 
  1806 ;;  tlength         2   16[BANK1 ] unsigned int 
  1807 ;;  slot            1   18[BANK1 ] unsigned char 
  1808 ;; Return value:  Size  Location     Type
  1809 ;;                  1    wreg      char 
  1810 ;; Registers used:
  1811 ;;		wreg, fsr1l, fsr1h, fsr2l, fsr2h, status,2, status,0, prodl, prodh, cstack
  1812 ;; Tracked objects:
  1813 ;;		On entry : 0/0
  1814 ;;		On exit  : 0/0
  1815 ;;		Unchanged: 0/0
  1816 ;; Data sizes:     COMRAM   BANK0   BANK1   BANK2   BANK3   BANK4   BANK5   BANK6   BANK7   BANK8   BANK9  BANK10  BANK1
      +1  BANK12  BANK13  BANK14
  1817 ;;      Params:         0       0       6       0       0       0       0       0       0       0       0       0       
      +0       0       0       0
  1818 ;;      Locals:         0       0       5       0       0       0       0       0       0       0       0       0       
      +0       0       0       0
  1819 ;;      Temps:          0       1       0       0       0       0       0       0       0       0       0       0       
      +0       0       0       0
  1820 ;;      Totals:         0       1      11       0       0       0       0       0       0       0       0       0       
      +0       0       0       0
  1821 ;;Total ram usage:       12 bytes
  1822 ;; Hardware stack levels used:    1
  1823 ;; Hardware stack levels required when called:   11
  1824 ;; This function calls:
  1825 ;;		_memcpy
  1826 ;; This function is called by:
  1827 ;;		_FromMainLow_sendmsg
  1828 ;;		_FromMainHigh_sendmsg
  1829 ;; This function uses a non-reentrant model
  1830 ;;
  1831                           
  1832                           	psect	text6
  1833  000AE0                     __ptext6:
  1834                           	opt stack 0
  1835  000AE0                     _send_msg:
  1836                           	opt stack 17
  1837                           
  1838                           ;messages.c: 26: unsigned char slot;
  1839                           ;messages.c: 28: msg *qmsg;
  1840                           ;messages.c: 29: size_t tlength = length;
  1841                           
  1842                           ;incstack = 0
  1843  000AE0  0101               	movlb	1	; () banked
  1844  000AE2  C1AE  F1B2         	movff	send_msg@length,send_msg@tlength
  1845  000AE6  0101               	movlb	1	; () banked
  1846  000AE8  6BB3               	clrf	(send_msg@tlength+1)& (0+255),b
  1847                           
  1848                           ; BSR set to: 1
  1849                           ;messages.c: 39: slot = qptr->cur_write_ind;
  1850  000AEA  0101               	movlb	1	; () banked
  1851  000AEC  EE20 F034          	lfsr	2,52
  1852  000AF0  0101               	movlb	1	; () banked
  1853  000AF2  51AC               	movf	send_msg@qptr& (0+255),w,b
  1854  000AF4  26D9               	addwf	fsr2l,f,c
  1855  000AF6  0101               	movlb	1	; () banked
  1856  000AF8  51AD               	movf	(send_msg@qptr+1)& (0+255),w,b
  1857  000AFA  22DA               	addwfc	fsr2h,f,c
  1858  000AFC  50DF               	movf	indf2,w,c
  1859  000AFE  0101               	movlb	1	; () banked
  1860  000B00  6FB4               	movwf	send_msg@slot& (0+255),b
  1861                           
  1862                           ; BSR set to: 1
  1863                           ;messages.c: 40: qmsg = &(qptr->queue[slot]);
  1864  000B02  0101               	movlb	1	; () banked
  1865  000B04  51B4               	movf	send_msg@slot& (0+255),w,b
  1866  000B06  0D0D               	mullw	13
  1867  000B08  50F3               	movf	prodl,w,c
  1868  000B0A  0101               	movlb	1	; () banked
  1869  000B0C  25AC               	addwf	send_msg@qptr& (0+255),w,b
  1870  000B0E  0101               	movlb	1	; () banked
  1871  000B10  6FB5               	movwf	send_msg@qmsg& (0+255),b
  1872  000B12  50F4               	movf	prodh,w,c
  1873  000B14  0101               	movlb	1	; () banked
  1874  000B16  21AD               	addwfc	(send_msg@qptr+1)& (0+255),w,b
  1875  000B18  0101               	movlb	1	; () banked
  1876  000B1A  6FB6               	movwf	(send_msg@qmsg+1)& (0+255),b
  1877                           
  1878                           ; BSR set to: 1
  1879                           ;messages.c: 42: if (qmsg->full != 0) {
  1880  000B1C  C1B5  FFD9         	movff	send_msg@qmsg,fsr2l
  1881  000B20  C1B6  FFDA         	movff	send_msg@qmsg+1,fsr2h
  1882  000B24  50DF               	movf	indf2,w,c
  1883  000B26  B4D8               	btfsc	status,2,c
  1884  000B28  D002               	goto	l2957
  1885                           
  1886                           ; BSR set to: 1
  1887                           ;messages.c: 43: return (-1);
  1888  000B2A  0EFF               	movlw	255
  1889  000B2C  0012               	return	
  1890  000B2E                     l2957:
  1891                           
  1892                           ; BSR set to: 1
  1893                           ;messages.c: 44: }
  1894                           ;messages.c: 47: qmsg->length = length;
  1895  000B2E  0101               	movlb	1	; () banked
  1896  000B30  EE20 F001          	lfsr	2,1
  1897  000B34  0101               	movlb	1	; () banked
  1898  000B36  51B5               	movf	send_msg@qmsg& (0+255),w,b
  1899  000B38  26D9               	addwf	fsr2l,f,c
  1900  000B3A  0101               	movlb	1	; () banked
  1901  000B3C  51B6               	movf	(send_msg@qmsg+1)& (0+255),w,b
  1902  000B3E  22DA               	addwfc	fsr2h,f,c
  1903  000B40  0101               	movlb	1	; () banked
  1904  000B42  C1AE  FFDF         	movff	send_msg@length,indf2
  1905                           
  1906                           ;messages.c: 48: qmsg->msgtype = msgtype;
  1907  000B46  0101               	movlb	1	; () banked
  1908  000B48  EE20 F002          	lfsr	2,2
  1909  000B4C  0101               	movlb	1	; () banked
  1910  000B4E  51B5               	movf	send_msg@qmsg& (0+255),w,b
  1911  000B50  26D9               	addwf	fsr2l,f,c
  1912  000B52  0101               	movlb	1	; () banked
  1913  000B54  51B6               	movf	(send_msg@qmsg+1)& (0+255),w,b
  1914  000B56  22DA               	addwfc	fsr2h,f,c
  1915  000B58  0101               	movlb	1	; () banked
  1916  000B5A  C1AF  FFDF         	movff	send_msg@msgtype,indf2
  1917                           
  1918                           ; BSR set to: 1
  1919                           ;messages.c: 56: memcpy(qmsg->data, data, tlength);
  1920  000B5E  0E03               	movlw	3
  1921  000B60  0101               	movlb	1	; () banked
  1922  000B62  25B5               	addwf	send_msg@qmsg& (0+255),w,b
  1923  000B64  0101               	movlb	1	; () banked
  1924  000B66  6FA2               	movwf	memcpy@d1& (0+255),b
  1925  000B68  0E00               	movlw	0
  1926  000B6A  0101               	movlb	1	; () banked
  1927  000B6C  21B6               	addwfc	(send_msg@qmsg+1)& (0+255),w,b
  1928  000B6E  0101               	movlb	1	; () banked
  1929  000B70  6FA3               	movwf	(memcpy@d1+1)& (0+255),b
  1930  000B72  0101               	movlb	1	; () banked
  1931  000B74  C1B1  F1A5         	movff	send_msg@data+1,memcpy@s1+1
  1932  000B78  0101               	movlb	1	; () banked
  1933  000B7A  C1B0  F1A4         	movff	send_msg@data,memcpy@s1
  1934  000B7E  C1B2  F1A6         	movff	send_msg@tlength,memcpy@n
  1935  000B82  C1B3  F1A7         	movff	send_msg@tlength+1,memcpy@n+1
  1936  000B86  EC9F  F009         	call	_memcpy	;wreg free
  1937                           
  1938                           ;messages.c: 57: qptr->cur_write_ind = (qptr->cur_write_ind + 1) % 4;
  1939  000B8A  0101               	movlb	1	; () banked
  1940  000B8C  EE20 F034          	lfsr	2,52
  1941  000B90  0101               	movlb	1	; () banked
  1942  000B92  51AC               	movf	send_msg@qptr& (0+255),w,b
  1943  000B94  26D9               	addwf	fsr2l,f,c
  1944  000B96  0101               	movlb	1	; () banked
  1945  000B98  51AD               	movf	(send_msg@qptr+1)& (0+255),w,b
  1946  000B9A  22DA               	addwfc	fsr2h,f,c
  1947  000B9C  0101               	movlb	1	; () banked
  1948  000B9E  EE10 F034          	lfsr	1,52
  1949  000BA2  0101               	movlb	1	; () banked
  1950  000BA4  51AC               	movf	send_msg@qptr& (0+255),w,b
  1951  000BA6  26E1               	addwf	fsr1l,f,c
  1952  000BA8  0101               	movlb	1	; () banked
  1953  000BAA  51AD               	movf	(send_msg@qptr+1)& (0+255),w,b
  1954  000BAC  22E2               	addwfc	fsr1h,f,c
  1955  000BAE  50E7               	movf	indf1,w,c
  1956  000BB0  0100               	movlb	0	; () banked
  1957  000BB2  6FC9               	movwf	??_send_msg& (0+255),b
  1958  000BB4  0100               	movlb	0	; () banked
  1959  000BB6  29C9               	incf	??_send_msg& (0+255),w,b
  1960  000BB8  0B03               	andlw	3
  1961  000BBA  6EDF               	movwf	indf2,c
  1962                           
  1963                           ; BSR set to: 0
  1964                           ;messages.c: 60: qmsg->full = 1;
  1965  000BBC  C1B5  FFD9         	movff	send_msg@qmsg,fsr2l
  1966  000BC0  C1B6  FFDA         	movff	send_msg@qmsg+1,fsr2h
  1967  000BC4  0E01               	movlw	1
  1968  000BC6  6EDF               	movwf	indf2,c
  1969                           
  1970                           ; BSR set to: 0
  1971                           ;messages.c: 61: return (1);
  1972  000BC8  0E01               	movlw	1
  1973  000BCA  0012               	return	
  1974  000BCC                     __end_of_send_msg:
  1975                           	opt stack 0
  1976                           tblptru	equ	0xFF8
  1977                           prodh	equ	0xFF4
  1978                           prodl	equ	0xFF3
  1979                           intcon2	equ	0xFF1
  1980                           postinc0	equ	0xFEE
  1981                           wreg	equ	0xFE8
  1982                           indf1	equ	0xFE7
  1983                           fsr1h	equ	0xFE2
  1984                           fsr1l	equ	0xFE1
  1985                           indf2	equ	0xFDF
  1986                           postinc2	equ	0xFDE
  1987                           postdec2	equ	0xFDD
  1988                           fsr2h	equ	0xFDA
  1989                           fsr2l	equ	0xFD9
  1990                           status	equ	0xFD8
  1991                           
  1992 ;; *************** function _timer0_lthread *****************
  1993 ;; Defined at:
  1994 ;;		line 10 in file "../src/timer0_thread.c"
  1995 ;; Parameters:    Size  Location     Type
  1996 ;;  tptr            2    0[BANK1 ] PTR struct __timer0_thre
  1997 ;;		 -> main@t0thread_data(2), 
  1998 ;;  msgtype         2    2[BANK1 ] int 
  1999 ;;  length          2    4[BANK1 ] int 
  2000 ;;  msgbuffer       2    6[BANK1 ] PTR unsigned char 
  2001 ;;		 -> main@msgbuffer(11), 
  2002 ;; Auto vars:     Size  Location     Type
  2003 ;;  msgval          2   50[BANK0 ] PTR unsigned int 
  2004 ;;		 -> main@msgbuffer(11), 
  2005 ;; Return value:  Size  Location     Type
  2006 ;;                  2    0[BANK1 ] int 
  2007 ;; Registers used:
  2008 ;;		wreg, status,2, status,0
  2009 ;; Tracked objects:
  2010 ;;		On entry : 0/0
  2011 ;;		On exit  : 0/0
  2012 ;;		Unchanged: 0/0
  2013 ;; Data sizes:     COMRAM   BANK0   BANK1   BANK2   BANK3   BANK4   BANK5   BANK6   BANK7   BANK8   BANK9  BANK10  BANK1
      +1  BANK12  BANK13  BANK14
  2014 ;;      Params:         0       0       8       0       0       0       0       0       0       0       0       0       
      +0       0       0       0
  2015 ;;      Locals:         0       2       0       0       0       0       0       0       0       0       0       0       
      +0       0       0       0
  2016 ;;      Temps:          0       0       0       0       0       0       0       0       0       0       0       0       
      +0       0       0       0
  2017 ;;      Totals:         0       2       8       0       0       0       0       0       0       0       0       0       
      +0       0       0       0
  2018 ;;Total ram usage:       10 bytes
  2019 ;; Hardware stack levels used:    1
  2020 ;; Hardware stack levels required when called:   10
  2021 ;; This function calls:
  2022 ;;		Nothing
  2023 ;; This function is called by:
  2024 ;;		_main
  2025 ;; This function uses a non-reentrant model
  2026 ;;
  2027                           
  2028                           	psect	text7
  2029  001868                     __ptext7:
  2030                           	opt stack 0
  2031  001868                     _timer0_lthread:
  2032                           	opt stack 20
  2033                           
  2034                           ;timer0_thread.c: 11: unsigned int *msgval;
  2035                           ;timer0_thread.c: 13: msgval = (unsigned int *) msgbuffer;
  2036                           
  2037                           ;incstack = 0
  2038  001868  0101               	movlb	1	; () banked
  2039  00186A  0100               	movlb	0	; () banked
  2040  00186C  C1A9  F0CA         	movff	timer0_lthread@msgbuffer+1,timer0_lthread@msgval+1
  2041  001870  0101               	movlb	1	; () banked
  2042  001872  0100               	movlb	0	; () banked
  2043  001874  C1A8  F0C9         	movff	timer0_lthread@msgbuffer,timer0_lthread@msgval
  2044                           
  2045                           ; BSR set to: 0
  2046  001878  0012               	return	
  2047  00187A                     __end_of_timer0_lthread:
  2048                           	opt stack 0
  2049                           tblptru	equ	0xFF8
  2050                           prodh	equ	0xFF4
  2051                           prodl	equ	0xFF3
  2052                           intcon2	equ	0xFF1
  2053                           postinc0	equ	0xFEE
  2054                           wreg	equ	0xFE8
  2055                           indf1	equ	0xFE7
  2056                           fsr1h	equ	0xFE2
  2057                           fsr1l	equ	0xFE1
  2058                           indf2	equ	0xFDF
  2059                           postinc2	equ	0xFDE
  2060                           postdec2	equ	0xFDD
  2061                           fsr2h	equ	0xFDA
  2062                           fsr2l	equ	0xFD9
  2063                           status	equ	0xFD8
  2064                           
  2065 ;; *************** function _start_i2c_slave_reply *****************
  2066 ;; Defined at:
  2067 ;;		line 12 in file "../src/my_i2c.c"
  2068 ;; Parameters:    Size  Location     Type
  2069 ;;  length          1    wreg     unsigned char 
  2070 ;;  msg             2   50[BANK0 ] PTR unsigned char 
  2071 ;;		 -> main@uc.queue(52), main@ic.queue(52), main@t1thread_data.queue(52), FromMainLow_MQ.queue(52), 
  2072 ;;		 -> FromMainHigh_MQ.queue(52), SensorData_MQ.queue(52), ToMainHigh_MQ.queue(52), ToMainLow_MQ.queue(52), 
  2073 ;;		 -> NULL(0), SensorData_sendmsg@qptr.queue(52), SensorData_sendmsg@qptr(2), main@forward(2), 
  2074 ;; Auto vars:     Size  Location     Type
  2075 ;;  length          1   52[BANK0 ] unsigned char 
  2076 ;; Return value:  Size  Location     Type
  2077 ;;		None               void
  2078 ;; Registers used:
  2079 ;;		wreg, fsr1l, fsr1h, fsr2l, fsr2h, status,2, status,0, prodl, prodh
  2080 ;; Tracked objects:
  2081 ;;		On entry : 0/0
  2082 ;;		On exit  : 0/0
  2083 ;;		Unchanged: 0/0
  2084 ;; Data sizes:     COMRAM   BANK0   BANK1   BANK2   BANK3   BANK4   BANK5   BANK6   BANK7   BANK8   BANK9  BANK10  BANK1
      +1  BANK12  BANK13  BANK14
  2085 ;;      Params:         0       2       0       0       0       0       0       0       0       0       0       0       
      +0       0       0       0
  2086 ;;      Locals:         0       1       0       0       0       0       0       0       0       0       0       0       
      +0       0       0       0
  2087 ;;      Temps:          0       0       2       0       0       0       0       0       0       0       0       0       
      +0       0       0       0
  2088 ;;      Totals:         0       3       2       0       0       0       0       0       0       0       0       0       
      +0       0       0       0
  2089 ;;Total ram usage:        5 bytes
  2090 ;; Hardware stack levels used:    1
  2091 ;; Hardware stack levels required when called:   10
  2092 ;; This function calls:
  2093 ;;		Nothing
  2094 ;; This function is called by:
  2095 ;;		_main
  2096 ;;		_SensorData_sendmsg
  2097 ;; This function uses a non-reentrant model
  2098 ;;
  2099                           
  2100                           	psect	text8
  2101  0009DC                     __ptext8:
  2102                           	opt stack 0
  2103  0009DC                     _start_i2c_slave_reply:
  2104                           	opt stack 20
  2105                           
  2106                           ; BSR set to: 0
  2107                           ;incstack = 0
  2108                           ;start_i2c_slave_reply@length stored from wreg
  2109  0009DC  0100               	movlb	0	; () banked
  2110  0009DE  6FCB               	movwf	start_i2c_slave_reply@length& (0+255),b
  2111                           
  2112                           ; BSR set to: 0
  2113                           ;my_i2c.c: 14: for (ic_ptr->outbuflen = 0; ic_ptr->outbuflen < length; ic_ptr->outbuflen
      +                          ++) {
  2114  0009E0  0100               	movlb	0	; () banked
  2115  0009E2  EE20 F01A          	lfsr	2,26
  2116  0009E6  0100               	movlb	0	; () banked
  2117  0009E8  51CC               	movf	_ic_ptr& (0+255),w,b
  2118  0009EA  26D9               	addwf	fsr2l,f,c
  2119  0009EC  0100               	movlb	0	; () banked
  2120  0009EE  51CD               	movf	(_ic_ptr+1)& (0+255),w,b
  2121  0009F0  22DA               	addwfc	fsr2h,f,c
  2122  0009F2  0E00               	movlw	0
  2123  0009F4  6EDF               	movwf	indf2,c
  2124  0009F6  D03E               	goto	l3495
  2125  0009F8                     l3491:
  2126                           
  2127                           ;my_i2c.c: 15: ic_ptr->outbuffer[ic_ptr->outbuflen] = msg[ic_ptr->outbuflen];
  2128  0009F8  0100               	movlb	0	; () banked
  2129  0009FA  EE20 F01A          	lfsr	2,26
  2130  0009FE  0100               	movlb	0	; () banked
  2131  000A00  51CC               	movf	_ic_ptr& (0+255),w,b
  2132  000A02  26D9               	addwf	fsr2l,f,c
  2133  000A04  0100               	movlb	0	; () banked
  2134  000A06  51CD               	movf	(_ic_ptr+1)& (0+255),w,b
  2135  000A08  22DA               	addwfc	fsr2h,f,c
  2136  000A0A  50DF               	movf	indf2,w,c
  2137  000A0C  0101               	movlb	1	; () banked
  2138  000A0E  6FA2               	movwf	??_start_i2c_slave_reply& (0+255),b
  2139  000A10  0101               	movlb	1	; () banked
  2140  000A12  51A2               	movf	??_start_i2c_slave_reply& (0+255),w,b
  2141  000A14  0D01               	mullw	1
  2142  000A16  50F3               	movf	prodl,w,c
  2143  000A18  0100               	movlb	0	; () banked
  2144  000A1A  25C9               	addwf	start_i2c_slave_reply@msg& (0+255),w,b
  2145  000A1C  6ED9               	movwf	fsr2l,c
  2146  000A1E  50F4               	movf	prodh,w,c
  2147  000A20  0100               	movlb	0	; () banked
  2148  000A22  21CA               	addwfc	(start_i2c_slave_reply@msg+1)& (0+255),w,b
  2149  000A24  6EDA               	movwf	fsr2h,c
  2150  000A26  0100               	movlb	0	; () banked
  2151  000A28  EE10 F01A          	lfsr	1,26
  2152  000A2C  0100               	movlb	0	; () banked
  2153  000A2E  51CC               	movf	_ic_ptr& (0+255),w,b
  2154  000A30  26E1               	addwf	fsr1l,f,c
  2155  000A32  0100               	movlb	0	; () banked
  2156  000A34  51CD               	movf	(_ic_ptr+1)& (0+255),w,b
  2157  000A36  22E2               	addwfc	fsr1h,f,c
  2158  000A38  50E7               	movf	indf1,w,c
  2159  000A3A  0101               	movlb	1	; () banked
  2160  000A3C  6FA3               	movwf	(??_start_i2c_slave_reply+1)& (0+255),b
  2161  000A3E  0101               	movlb	1	; () banked
  2162  000A40  51A3               	movf	(??_start_i2c_slave_reply+1)& (0+255),w,b
  2163  000A42  0D01               	mullw	1
  2164  000A44  0E10               	movlw	16
  2165  000A46  26F3               	addwf	prodl,f,c
  2166  000A48  0E00               	movlw	0
  2167  000A4A  22F4               	addwfc	prodh,f,c
  2168  000A4C  50F3               	movf	prodl,w,c
  2169  000A4E  0100               	movlb	0	; () banked
  2170  000A50  25CC               	addwf	_ic_ptr& (0+255),w,b
  2171  000A52  6EE1               	movwf	fsr1l,c
  2172  000A54  50F4               	movf	prodh,w,c
  2173  000A56  0100               	movlb	0	; () banked
  2174  000A58  21CD               	addwfc	(_ic_ptr+1)& (0+255),w,b
  2175  000A5A  6EE2               	movwf	fsr1h,c
  2176  000A5C  CFDF FFE7          	movff	indf2,indf1
  2177                           
  2178                           ; BSR set to: 0
  2179  000A60  0100               	movlb	0	; () banked
  2180  000A62  EE20 F01A          	lfsr	2,26
  2181  000A66  0100               	movlb	0	; () banked
  2182  000A68  51CC               	movf	_ic_ptr& (0+255),w,b
  2183  000A6A  26D9               	addwf	fsr2l,f,c
  2184  000A6C  0100               	movlb	0	; () banked
  2185  000A6E  51CD               	movf	(_ic_ptr+1)& (0+255),w,b
  2186  000A70  22DA               	addwfc	fsr2h,f,c
  2187  000A72  2ADF               	incf	indf2,f,c
  2188  000A74                     l3495:
  2189                           
  2190                           ; BSR set to: 0
  2191  000A74  0100               	movlb	0	; () banked
  2192  000A76  EE20 F01A          	lfsr	2,26
  2193  000A7A  0100               	movlb	0	; () banked
  2194  000A7C  51CC               	movf	_ic_ptr& (0+255),w,b
  2195  000A7E  26D9               	addwf	fsr2l,f,c
  2196  000A80  0100               	movlb	0	; () banked
  2197  000A82  51CD               	movf	(_ic_ptr+1)& (0+255),w,b
  2198  000A84  22DA               	addwfc	fsr2h,f,c
  2199  000A86  50DF               	movf	indf2,w,c
  2200  000A88  0101               	movlb	1	; () banked
  2201  000A8A  6FA2               	movwf	??_start_i2c_slave_reply& (0+255),b
  2202  000A8C  0100               	movlb	0	; () banked
  2203  000A8E  51CB               	movf	start_i2c_slave_reply@length& (0+255),w,b
  2204  000A90  0101               	movlb	1	; () banked
  2205  000A92  5DA2               	subwf	??_start_i2c_slave_reply& (0+255),w,b
  2206  000A94  A0D8               	btfss	status,0,c
  2207  000A96  D7B0               	goto	l3491
  2208                           
  2209                           ; BSR set to: 1
  2210                           ;my_i2c.c: 16: }
  2211                           ;my_i2c.c: 17: ic_ptr->outbuflen = length;
  2212                           
  2213                           ; BSR set to: 1
  2214  000A98  0100               	movlb	0	; () banked
  2215  000A9A  EE20 F01A          	lfsr	2,26
  2216  000A9E  0100               	movlb	0	; () banked
  2217  000AA0  51CC               	movf	_ic_ptr& (0+255),w,b
  2218  000AA2  26D9               	addwf	fsr2l,f,c
  2219  000AA4  0100               	movlb	0	; () banked
  2220  000AA6  51CD               	movf	(_ic_ptr+1)& (0+255),w,b
  2221  000AA8  22DA               	addwfc	fsr2h,f,c
  2222  000AAA  0100               	movlb	0	; () banked
  2223  000AAC  C0CB  FFDF         	movff	start_i2c_slave_reply@length,indf2
  2224                           
  2225                           ;my_i2c.c: 18: ic_ptr->outbufind = 1;
  2226  000AB0  0100               	movlb	0	; () banked
  2227  000AB2  EE20 F01B          	lfsr	2,27
  2228  000AB6  0100               	movlb	0	; () banked
  2229  000AB8  51CC               	movf	_ic_ptr& (0+255),w,b
  2230  000ABA  26D9               	addwf	fsr2l,f,c
  2231  000ABC  0100               	movlb	0	; () banked
  2232  000ABE  51CD               	movf	(_ic_ptr+1)& (0+255),w,b
  2233  000AC0  22DA               	addwfc	fsr2h,f,c
  2234  000AC2  0E01               	movlw	1
  2235  000AC4  6EDF               	movwf	indf2,c
  2236                           
  2237                           ;my_i2c.c: 21: SSPBUF = ic_ptr->outbuffer[0];
  2238  000AC6  0100               	movlb	0	; () banked
  2239  000AC8  EE20 F010          	lfsr	2,16
  2240  000ACC  0100               	movlb	0	; () banked
  2241  000ACE  51CC               	movf	_ic_ptr& (0+255),w,b
  2242  000AD0  26D9               	addwf	fsr2l,f,c
  2243  000AD2  0100               	movlb	0	; () banked
  2244  000AD4  51CD               	movf	(_ic_ptr+1)& (0+255),w,b
  2245  000AD6  22DA               	addwfc	fsr2h,f,c
  2246  000AD8  50DF               	movf	indf2,w,c
  2247  000ADA  6EC9               	movwf	4041,c	;volatile
  2248                           
  2249                           ; BSR set to: 0
  2250                           ;my_i2c.c: 24: SSPCON1bits.CKP = 1;
  2251  000ADC  88C6               	bsf	4038,4,c	;volatile
  2252                           
  2253                           ; BSR set to: 0
  2254  000ADE  0012               	return	
  2255  000AE0                     __end_of_start_i2c_slave_reply:
  2256                           	opt stack 0
  2257                           tblptru	equ	0xFF8
  2258                           prodh	equ	0xFF4
  2259                           prodl	equ	0xFF3
  2260                           intcon2	equ	0xFF1
  2261                           postinc0	equ	0xFEE
  2262                           wreg	equ	0xFE8
  2263                           indf1	equ	0xFE7
  2264                           fsr1h	equ	0xFE2
  2265                           fsr1l	equ	0xFE1
  2266                           indf2	equ	0xFDF
  2267                           postinc2	equ	0xFDE
  2268                           postdec2	equ	0xFDD
  2269                           fsr2h	equ	0xFDA
  2270                           fsr2l	equ	0xFD9
  2271                           status	equ	0xFD8
  2272                           
  2273 ;; *************** function _init_uart_recv *****************
  2274 ;; Defined at:
  2275 ;;		line 40 in file "../src/my_uart.c"
  2276 ;; Parameters:    Size  Location     Type
  2277 ;;  uc              2   50[BANK0 ] PTR struct __uart_comm
  2278 ;;		 -> main@uc(14), 
  2279 ;; Auto vars:     Size  Location     Type
  2280 ;;		None
  2281 ;; Return value:  Size  Location     Type
  2282 ;;		None               void
  2283 ;; Registers used:
  2284 ;;		wreg, fsr2l, fsr2h, status,2, status,0
  2285 ;; Tracked objects:
  2286 ;;		On entry : 0/0
  2287 ;;		On exit  : 0/0
  2288 ;;		Unchanged: 0/0
  2289 ;; Data sizes:     COMRAM   BANK0   BANK1   BANK2   BANK3   BANK4   BANK5   BANK6   BANK7   BANK8   BANK9  BANK10  BANK1
      +1  BANK12  BANK13  BANK14
  2290 ;;      Params:         0       2       0       0       0       0       0       0       0       0       0       0       
      +0       0       0       0
  2291 ;;      Locals:         0       0       0       0       0       0       0       0       0       0       0       0       
      +0       0       0       0
  2292 ;;      Temps:          0       0       0       0       0       0       0       0       0       0       0       0       
      +0       0       0       0
  2293 ;;      Totals:         0       2       0       0       0       0       0       0       0       0       0       0       
      +0       0       0       0
  2294 ;;Total ram usage:        2 bytes
  2295 ;; Hardware stack levels used:    1
  2296 ;; Hardware stack levels required when called:   10
  2297 ;; This function calls:
  2298 ;;		Nothing
  2299 ;; This function is called by:
  2300 ;;		_main
  2301 ;; This function uses a non-reentrant model
  2302 ;;
  2303                           
  2304                           	psect	text9
  2305  0016F0                     __ptext9:
  2306                           	opt stack 0
  2307  0016F0                     _init_uart_recv:
  2308                           	opt stack 20
  2309                           
  2310                           ;my_uart.c: 41: uc_ptr = uc;
  2311                           
  2312                           ; BSR set to: 0
  2313                           ;incstack = 0
  2314  0016F0  0100               	movlb	0	; () banked
  2315  0016F2  C0CA  F032         	movff	init_uart_recv@uc+1,_uc_ptr+1
  2316  0016F6  0100               	movlb	0	; () banked
  2317  0016F8  C0C9  F031         	movff	init_uart_recv@uc,_uc_ptr
  2318                           
  2319                           ; BSR set to: 0
  2320                           ;my_uart.c: 42: uc_ptr->buflen = 0;
  2321  0016FC  EE20 F004          	lfsr	2,4
  2322  001700  5031               	movf	_uc_ptr,w,c
  2323  001702  26D9               	addwf	fsr2l,f,c
  2324  001704  5032               	movf	_uc_ptr+1,w,c
  2325  001706  22DA               	addwfc	fsr2h,f,c
  2326  001708  0E00               	movlw	0
  2327  00170A  6EDF               	movwf	indf2,c
  2328                           
  2329                           ; BSR set to: 0
  2330                           ;my_uart.c: 43: uc_ptr->cmd_count = 0;
  2331  00170C  EE20 F00D          	lfsr	2,13
  2332  001710  5031               	movf	_uc_ptr,w,c
  2333  001712  26D9               	addwf	fsr2l,f,c
  2334  001714  5032               	movf	_uc_ptr+1,w,c
  2335  001716  22DA               	addwfc	fsr2h,f,c
  2336  001718  0E00               	movlw	0
  2337  00171A  6EDF               	movwf	indf2,c
  2338                           
  2339                           ; BSR set to: 0
  2340  00171C  0012               	return	
  2341  00171E                     __end_of_init_uart_recv:
  2342                           	opt stack 0
  2343                           tblptru	equ	0xFF8
  2344                           prodh	equ	0xFF4
  2345                           prodl	equ	0xFF3
  2346                           intcon2	equ	0xFF1
  2347                           postinc0	equ	0xFEE
  2348                           wreg	equ	0xFE8
  2349                           indf1	equ	0xFE7
  2350                           fsr1h	equ	0xFE2
  2351                           fsr1l	equ	0xFE1
  2352                           indf2	equ	0xFDF
  2353                           postinc2	equ	0xFDE
  2354                           postdec2	equ	0xFDD
  2355                           fsr2h	equ	0xFDA
  2356                           fsr2l	equ	0xFD9
  2357                           status	equ	0xFD8
  2358                           
  2359 ;; *************** function _init_timer1_lthread *****************
  2360 ;; Defined at:
  2361 ;;		line 6 in file "../src/timer1_thread.c"
  2362 ;; Parameters:    Size  Location     Type
  2363 ;;  tptr            2   50[BANK0 ] PTR struct __timer1_thre
  2364 ;;		 -> main@t1thread_data(2), 
  2365 ;; Auto vars:     Size  Location     Type
  2366 ;;		None
  2367 ;; Return value:  Size  Location     Type
  2368 ;;		None               void
  2369 ;; Registers used:
  2370 ;;		wreg, fsr2l, fsr2h
  2371 ;; Tracked objects:
  2372 ;;		On entry : 0/0
  2373 ;;		On exit  : 0/0
  2374 ;;		Unchanged: 0/0
  2375 ;; Data sizes:     COMRAM   BANK0   BANK1   BANK2   BANK3   BANK4   BANK5   BANK6   BANK7   BANK8   BANK9  BANK10  BANK1
      +1  BANK12  BANK13  BANK14
  2376 ;;      Params:         0       2       0       0       0       0       0       0       0       0       0       0       
      +0       0       0       0
  2377 ;;      Locals:         0       0       0       0       0       0       0       0       0       0       0       0       
      +0       0       0       0
  2378 ;;      Temps:          0       0       0       0       0       0       0       0       0       0       0       0       
      +0       0       0       0
  2379 ;;      Totals:         0       2       0       0       0       0       0       0       0       0       0       0       
      +0       0       0       0
  2380 ;;Total ram usage:        2 bytes
  2381 ;; Hardware stack levels used:    1
  2382 ;; Hardware stack levels required when called:   10
  2383 ;; This function calls:
  2384 ;;		Nothing
  2385 ;; This function is called by:
  2386 ;;		_main
  2387 ;; This function uses a non-reentrant model
  2388 ;;
  2389                           
  2390                           	psect	text10
  2391  00187A                     __ptext10:
  2392                           	opt stack 0
  2393  00187A                     _init_timer1_lthread:
  2394                           	opt stack 20
  2395                           
  2396                           ;timer1_thread.c: 7: tptr->msgcount = 0;
  2397                           
  2398                           ; BSR set to: 0
  2399                           ;incstack = 0
  2400  00187A  C0C9  FFD9         	movff	init_timer1_lthread@tptr,fsr2l
  2401  00187E  C0CA  FFDA         	movff	init_timer1_lthread@tptr+1,fsr2h
  2402  001882  0E00               	movlw	0
  2403  001884  6EDE               	movwf	postinc2,c
  2404  001886  0E00               	movlw	0
  2405  001888  6EDD               	movwf	postdec2,c
  2406  00188A  0012               	return	
  2407  00188C                     __end_of_init_timer1_lthread:
  2408                           	opt stack 0
  2409                           tblptru	equ	0xFF8
  2410                           prodh	equ	0xFF4
  2411                           prodl	equ	0xFF3
  2412                           intcon2	equ	0xFF1
  2413                           postinc0	equ	0xFEE
  2414                           wreg	equ	0xFE8
  2415                           indf1	equ	0xFE7
  2416                           fsr1h	equ	0xFE2
  2417                           fsr1l	equ	0xFE1
  2418                           indf2	equ	0xFDF
  2419                           postinc2	equ	0xFDE
  2420                           postdec2	equ	0xFDD
  2421                           fsr2h	equ	0xFDA
  2422                           fsr2l	equ	0xFD9
  2423                           status	equ	0xFD8
  2424                           
  2425 ;; *************** function _init_queues *****************
  2426 ;; Defined at:
  2427 ;;		line 258 in file "../src/messages.c"
  2428 ;; Parameters:    Size  Location     Type
  2429 ;;		None
  2430 ;; Auto vars:     Size  Location     Type
  2431 ;;		None
  2432 ;; Return value:  Size  Location     Type
  2433 ;;		None               void
  2434 ;; Registers used:
  2435 ;;		wreg, fsr2l, fsr2h, status,2, status,0, prodl, prodh, cstack
  2436 ;; Tracked objects:
  2437 ;;		On entry : 0/0
  2438 ;;		On exit  : 0/0
  2439 ;;		Unchanged: 0/0
  2440 ;; Data sizes:     COMRAM   BANK0   BANK1   BANK2   BANK3   BANK4   BANK5   BANK6   BANK7   BANK8   BANK9  BANK10  BANK1
      +1  BANK12  BANK13  BANK14
  2441 ;;      Params:         0       0       0       0       0       0       0       0       0       0       0       0       
      +0       0       0       0
  2442 ;;      Locals:         0       0       0       0       0       0       0       0       0       0       0       0       
      +0       0       0       0
  2443 ;;      Temps:          0       0       0       0       0       0       0       0       0       0       0       0       
      +0       0       0       0
  2444 ;;      Totals:         0       0       0       0       0       0       0       0       0       0       0       0       
      +0       0       0       0
  2445 ;;Total ram usage:        0 bytes
  2446 ;; Hardware stack levels used:    1
  2447 ;; Hardware stack levels required when called:   11
  2448 ;; This function calls:
  2449 ;;		_init_queue
  2450 ;; This function is called by:
  2451 ;;		_main
  2452 ;; This function uses a non-reentrant model
  2453 ;;
  2454                           
  2455                           	psect	text11
  2456  001088                     __ptext11:
  2457                           	opt stack 0
  2458  001088                     _init_queues:
  2459                           	opt stack 19
  2460                           
  2461                           ;messages.c: 259: MQ_Main_Willing_to_block = 0;
  2462                           
  2463                           ;incstack = 0
  2464  001088  0E00               	movlw	0
  2465  00108A  0100               	movlb	0	; () banked
  2466  00108C  6F60               	movwf	_MQ_Main_Willing_to_block& (0+255),b
  2467                           
  2468                           ; BSR set to: 0
  2469                           ;messages.c: 260: init_queue(&ToMainLow_MQ);
  2470  00108E  0100               	movlb	0	; () banked
  2471  001090  0E00               	movlw	high _ToMainLow_MQ
  2472  001092  0100               	movlb	0	; () banked
  2473  001094  6FCA               	movwf	(init_queue@qptr+1)& (0+255),b
  2474  001096  0100               	movlb	0	; () banked
  2475  001098  0E61               	movlw	low _ToMainLow_MQ
  2476  00109A  0100               	movlb	0	; () banked
  2477  00109C  6FC9               	movwf	init_queue@qptr& (0+255),b
  2478  00109E  ECAD  F008         	call	_init_queue	;wreg free
  2479                           
  2480                           ;messages.c: 261: init_queue(&ToMainHigh_MQ);
  2481  0010A2  0101               	movlb	1	; () banked
  2482  0010A4  0E01               	movlw	high _ToMainHigh_MQ
  2483  0010A6  0100               	movlb	0	; () banked
  2484  0010A8  6FCA               	movwf	(init_queue@qptr+1)& (0+255),b
  2485  0010AA  0101               	movlb	1	; () banked
  2486  0010AC  0E6C               	movlw	low _ToMainHigh_MQ
  2487  0010AE  0100               	movlb	0	; () banked
  2488  0010B0  6FC9               	movwf	init_queue@qptr& (0+255),b
  2489  0010B2  ECAD  F008         	call	_init_queue	;wreg free
  2490                           
  2491                           ;messages.c: 262: init_queue(&FromMainLow_MQ);
  2492  0010B6  0101               	movlb	1	; () banked
  2493  0010B8  0E01               	movlw	high _FromMainLow_MQ
  2494  0010BA  0100               	movlb	0	; () banked
  2495  0010BC  6FCA               	movwf	(init_queue@qptr+1)& (0+255),b
  2496  0010BE  0101               	movlb	1	; () banked
  2497  0010C0  0E00               	movlw	low _FromMainLow_MQ
  2498  0010C2  0100               	movlb	0	; () banked
  2499  0010C4  6FC9               	movwf	init_queue@qptr& (0+255),b
  2500  0010C6  ECAD  F008         	call	_init_queue	;wreg free
  2501                           
  2502                           ;messages.c: 263: init_queue(&FromMainHigh_MQ);
  2503  0010CA  0102               	movlb	2	; () banked
  2504  0010CC  0E02               	movlw	high _FromMainHigh_MQ
  2505  0010CE  0100               	movlb	0	; () banked
  2506  0010D0  6FCA               	movwf	(init_queue@qptr+1)& (0+255),b
  2507  0010D2  0102               	movlb	2	; () banked
  2508  0010D4  0E43               	movlw	low _FromMainHigh_MQ
  2509  0010D6  0100               	movlb	0	; () banked
  2510  0010D8  6FC9               	movwf	init_queue@qptr& (0+255),b
  2511  0010DA  ECAD  F008         	call	_init_queue	;wreg free
  2512                           
  2513                           ;messages.c: 264: init_queue(&SensorData_MQ);
  2514  0010DE  0101               	movlb	1	; () banked
  2515  0010E0  0E01               	movlw	high _SensorData_MQ
  2516  0010E2  0100               	movlb	0	; () banked
  2517  0010E4  6FCA               	movwf	(init_queue@qptr+1)& (0+255),b
  2518  0010E6  0101               	movlb	1	; () banked
  2519  0010E8  0E36               	movlw	low _SensorData_MQ
  2520  0010EA  0100               	movlb	0	; () banked
  2521  0010EC  6FC9               	movwf	init_queue@qptr& (0+255),b
  2522  0010EE  ECAD  F008         	call	_init_queue	;wreg free
  2523  0010F2  0012               	return	
  2524  0010F4                     __end_of_init_queues:
  2525                           	opt stack 0
  2526                           tblptru	equ	0xFF8
  2527                           prodh	equ	0xFF4
  2528                           prodl	equ	0xFF3
  2529                           intcon2	equ	0xFF1
  2530                           postinc0	equ	0xFEE
  2531                           wreg	equ	0xFE8
  2532                           indf1	equ	0xFE7
  2533                           fsr1h	equ	0xFE2
  2534                           fsr1l	equ	0xFE1
  2535                           indf2	equ	0xFDF
  2536                           postinc2	equ	0xFDE
  2537                           postdec2	equ	0xFDD
  2538                           fsr2h	equ	0xFDA
  2539                           fsr2l	equ	0xFD9
  2540                           status	equ	0xFD8
  2541                           
  2542 ;; *************** function _init_queue *****************
  2543 ;; Defined at:
  2544 ;;		line 15 in file "../src/messages.c"
  2545 ;; Parameters:    Size  Location     Type
  2546 ;;  qptr            2   50[BANK0 ] PTR struct __msg_queue
  2547 ;;		 -> FromMainHigh_MQ(54), FromMainLow_MQ(54), SensorData_MQ(54), ToMainHigh_MQ(54), 
  2548 ;;		 -> ToMainLow_MQ(54), 
  2549 ;; Auto vars:     Size  Location     Type
  2550 ;;  i               1   52[BANK0 ] unsigned char 
  2551 ;; Return value:  Size  Location     Type
  2552 ;;		None               void
  2553 ;; Registers used:
  2554 ;;		wreg, fsr2l, fsr2h, status,2, status,0, prodl, prodh
  2555 ;; Tracked objects:
  2556 ;;		On entry : 0/0
  2557 ;;		On exit  : 0/0
  2558 ;;		Unchanged: 0/0
  2559 ;; Data sizes:     COMRAM   BANK0   BANK1   BANK2   BANK3   BANK4   BANK5   BANK6   BANK7   BANK8   BANK9  BANK10  BANK1
      +1  BANK12  BANK13  BANK14
  2560 ;;      Params:         0       2       0       0       0       0       0       0       0       0       0       0       
      +0       0       0       0
  2561 ;;      Locals:         0       1       0       0       0       0       0       0       0       0       0       0       
      +0       0       0       0
  2562 ;;      Temps:          0       0       0       0       0       0       0       0       0       0       0       0       
      +0       0       0       0
  2563 ;;      Totals:         0       3       0       0       0       0       0       0       0       0       0       0       
      +0       0       0       0
  2564 ;;Total ram usage:        3 bytes
  2565 ;; Hardware stack levels used:    1
  2566 ;; Hardware stack levels required when called:   10
  2567 ;; This function calls:
  2568 ;;		Nothing
  2569 ;; This function is called by:
  2570 ;;		_init_queues
  2571 ;; This function uses a non-reentrant model
  2572 ;;
  2573                           
  2574                           	psect	text12
  2575  00115A                     __ptext12:
  2576                           	opt stack 0
  2577  00115A                     _init_queue:
  2578                           	opt stack 19
  2579                           
  2580                           ;messages.c: 16: unsigned char i;
  2581                           ;messages.c: 18: qptr->cur_write_ind = 0;
  2582                           
  2583                           ;incstack = 0
  2584  00115A  0100               	movlb	0	; () banked
  2585  00115C  EE20 F034          	lfsr	2,52
  2586  001160  0100               	movlb	0	; () banked
  2587  001162  51C9               	movf	init_queue@qptr& (0+255),w,b
  2588  001164  26D9               	addwf	fsr2l,f,c
  2589  001166  0100               	movlb	0	; () banked
  2590  001168  51CA               	movf	(init_queue@qptr+1)& (0+255),w,b
  2591  00116A  22DA               	addwfc	fsr2h,f,c
  2592  00116C  0E00               	movlw	0
  2593  00116E  6EDF               	movwf	indf2,c
  2594                           
  2595                           ;messages.c: 19: qptr->cur_read_ind = 0;
  2596  001170  0100               	movlb	0	; () banked
  2597  001172  EE20 F035          	lfsr	2,53
  2598  001176  0100               	movlb	0	; () banked
  2599  001178  51C9               	movf	init_queue@qptr& (0+255),w,b
  2600  00117A  26D9               	addwf	fsr2l,f,c
  2601  00117C  0100               	movlb	0	; () banked
  2602  00117E  51CA               	movf	(init_queue@qptr+1)& (0+255),w,b
  2603  001180  22DA               	addwfc	fsr2h,f,c
  2604  001182  0E00               	movlw	0
  2605  001184  6EDF               	movwf	indf2,c
  2606                           
  2607                           ; BSR set to: 0
  2608                           ;messages.c: 20: for (i = 0; i < 4; i++) {
  2609  001186  0E00               	movlw	0
  2610  001188  0100               	movlb	0	; () banked
  2611  00118A  6FCB               	movwf	init_queue@i& (0+255),b
  2612                           
  2613                           ; BSR set to: 0
  2614  00118C  0E03               	movlw	3
  2615  00118E  0100               	movlb	0	; () banked
  2616  001190  65CB               	cpfsgt	init_queue@i& (0+255),b
  2617  001192  D001               	goto	l3075
  2618  001194  0012               	return	
  2619  001196                     l3075:
  2620                           
  2621                           ; BSR set to: 0
  2622                           ;messages.c: 21: qptr->queue[i].full = 0;
  2623  001196  0100               	movlb	0	; () banked
  2624  001198  51CB               	movf	init_queue@i& (0+255),w,b
  2625  00119A  0D0D               	mullw	13
  2626  00119C  50F3               	movf	prodl,w,c
  2627  00119E  0100               	movlb	0	; () banked
  2628  0011A0  25C9               	addwf	init_queue@qptr& (0+255),w,b
  2629  0011A2  6ED9               	movwf	fsr2l,c
  2630  0011A4  50F4               	movf	prodh,w,c
  2631  0011A6  0100               	movlb	0	; () banked
  2632  0011A8  21CA               	addwfc	(init_queue@qptr+1)& (0+255),w,b
  2633  0011AA  6EDA               	movwf	fsr2h,c
  2634  0011AC  0E00               	movlw	0
  2635  0011AE  6EDF               	movwf	indf2,c
  2636                           
  2637                           ; BSR set to: 0
  2638  0011B0  0100               	movlb	0	; () banked
  2639  0011B2  2BCB               	incf	init_queue@i& (0+255),f,b
  2640                           
  2641                           ; BSR set to: 0
  2642  0011B4  0E03               	movlw	3
  2643  0011B6  0100               	movlb	0	; () banked
  2644  0011B8  65CB               	cpfsgt	init_queue@i& (0+255),b
  2645  0011BA  D7ED               	goto	l3075
  2646  0011BC  0012               	return	
  2647  0011BE                     __end_of_init_queue:
  2648                           	opt stack 0
  2649                           tblptru	equ	0xFF8
  2650                           prodh	equ	0xFF4
  2651                           prodl	equ	0xFF3
  2652                           intcon2	equ	0xFF1
  2653                           postinc0	equ	0xFEE
  2654                           wreg	equ	0xFE8
  2655                           indf1	equ	0xFE7
  2656                           fsr1h	equ	0xFE2
  2657                           fsr1l	equ	0xFE1
  2658                           indf2	equ	0xFDF
  2659                           postinc2	equ	0xFDE
  2660                           postdec2	equ	0xFDD
  2661                           fsr2h	equ	0xFDA
  2662                           fsr2l	equ	0xFD9
  2663                           status	equ	0xFD8
  2664                           
  2665 ;; *************** function _init_i2c *****************
  2666 ;; Defined at:
  2667 ;;		line 220 in file "../src/my_i2c.c"
  2668 ;; Parameters:    Size  Location     Type
  2669 ;;  ic              2   50[BANK0 ] PTR struct __i2c_comm
  2670 ;;		 -> main@ic(31), 
  2671 ;; Auto vars:     Size  Location     Type
  2672 ;;		None
  2673 ;; Return value:  Size  Location     Type
  2674 ;;		None               void
  2675 ;; Registers used:
  2676 ;;		wreg, fsr2l, fsr2h, status,2, status,0
  2677 ;; Tracked objects:
  2678 ;;		On entry : 0/0
  2679 ;;		On exit  : 0/0
  2680 ;;		Unchanged: 0/0
  2681 ;; Data sizes:     COMRAM   BANK0   BANK1   BANK2   BANK3   BANK4   BANK5   BANK6   BANK7   BANK8   BANK9  BANK10  BANK1
      +1  BANK12  BANK13  BANK14
  2682 ;;      Params:         0       2       0       0       0       0       0       0       0       0       0       0       
      +0       0       0       0
  2683 ;;      Locals:         0       0       0       0       0       0       0       0       0       0       0       0       
      +0       0       0       0
  2684 ;;      Temps:          0       0       0       0       0       0       0       0       0       0       0       0       
      +0       0       0       0
  2685 ;;      Totals:         0       2       0       0       0       0       0       0       0       0       0       0       
      +0       0       0       0
  2686 ;;Total ram usage:        2 bytes
  2687 ;; Hardware stack levels used:    1
  2688 ;; Hardware stack levels required when called:   10
  2689 ;; This function calls:
  2690 ;;		Nothing
  2691 ;; This function is called by:
  2692 ;;		_main
  2693 ;; This function uses a non-reentrant model
  2694 ;;
  2695                           
  2696                           	psect	text13
  2697  0010F4                     __ptext13:
  2698                           	opt stack 0
  2699  0010F4                     _init_i2c:
  2700                           	opt stack 20
  2701                           
  2702                           ;my_i2c.c: 221: ic_ptr = ic;
  2703                           
  2704                           ; BSR set to: 0
  2705                           ;incstack = 0
  2706  0010F4  0100               	movlb	0	; () banked
  2707  0010F6  C0CA  F0CD         	movff	init_i2c@ic+1,_ic_ptr+1
  2708  0010FA  0100               	movlb	0	; () banked
  2709  0010FC  C0C9  F0CC         	movff	init_i2c@ic,_ic_ptr
  2710                           
  2711                           ; BSR set to: 0
  2712                           ;my_i2c.c: 222: ic_ptr->buflen = 0;
  2713  001100  0100               	movlb	0	; () banked
  2714  001102  EE20 F00A          	lfsr	2,10
  2715  001106  0100               	movlb	0	; () banked
  2716  001108  51CC               	movf	_ic_ptr& (0+255),w,b
  2717  00110A  26D9               	addwf	fsr2l,f,c
  2718  00110C  0100               	movlb	0	; () banked
  2719  00110E  51CD               	movf	(_ic_ptr+1)& (0+255),w,b
  2720  001110  22DA               	addwfc	fsr2h,f,c
  2721  001112  0E00               	movlw	0
  2722  001114  6EDF               	movwf	indf2,c
  2723                           
  2724                           ; BSR set to: 0
  2725                           ;my_i2c.c: 223: ic_ptr->event_count = 0;
  2726  001116  0100               	movlb	0	; () banked
  2727  001118  EE20 F00C          	lfsr	2,12
  2728  00111C  0100               	movlb	0	; () banked
  2729  00111E  51CC               	movf	_ic_ptr& (0+255),w,b
  2730  001120  26D9               	addwf	fsr2l,f,c
  2731  001122  0100               	movlb	0	; () banked
  2732  001124  51CD               	movf	(_ic_ptr+1)& (0+255),w,b
  2733  001126  22DA               	addwfc	fsr2h,f,c
  2734  001128  0E00               	movlw	0
  2735  00112A  6EDF               	movwf	indf2,c
  2736                           
  2737                           ; BSR set to: 0
  2738                           ;my_i2c.c: 224: ic_ptr->status = 0x4;
  2739  00112C  0100               	movlb	0	; () banked
  2740  00112E  EE20 F00D          	lfsr	2,13
  2741  001132  0100               	movlb	0	; () banked
  2742  001134  51CC               	movf	_ic_ptr& (0+255),w,b
  2743  001136  26D9               	addwf	fsr2l,f,c
  2744  001138  0100               	movlb	0	; () banked
  2745  00113A  51CD               	movf	(_ic_ptr+1)& (0+255),w,b
  2746  00113C  22DA               	addwfc	fsr2h,f,c
  2747  00113E  0E04               	movlw	4
  2748  001140  6EDF               	movwf	indf2,c
  2749                           
  2750                           ; BSR set to: 0
  2751                           ;my_i2c.c: 225: ic_ptr->error_count = 0;
  2752  001142  0100               	movlb	0	; () banked
  2753  001144  EE20 F00F          	lfsr	2,15
  2754  001148  0100               	movlb	0	; () banked
  2755  00114A  51CC               	movf	_ic_ptr& (0+255),w,b
  2756  00114C  26D9               	addwf	fsr2l,f,c
  2757  00114E  0100               	movlb	0	; () banked
  2758  001150  51CD               	movf	(_ic_ptr+1)& (0+255),w,b
  2759  001152  22DA               	addwfc	fsr2h,f,c
  2760  001154  0E00               	movlw	0
  2761  001156  6EDF               	movwf	indf2,c
  2762                           
  2763                           ; BSR set to: 0
  2764  001158  0012               	return	
  2765  00115A                     __end_of_init_i2c:
  2766                           	opt stack 0
  2767                           tblptru	equ	0xFF8
  2768                           prodh	equ	0xFF4
  2769                           prodl	equ	0xFF3
  2770                           intcon2	equ	0xFF1
  2771                           postinc0	equ	0xFEE
  2772                           wreg	equ	0xFE8
  2773                           indf1	equ	0xFE7
  2774                           fsr1h	equ	0xFE2
  2775                           fsr1l	equ	0xFE1
  2776                           indf2	equ	0xFDF
  2777                           postinc2	equ	0xFDE
  2778                           postdec2	equ	0xFDD
  2779                           fsr2h	equ	0xFDA
  2780                           fsr2l	equ	0xFD9
  2781                           status	equ	0xFD8
  2782                           
  2783 ;; *************** function _i2c_configure_slave *****************
  2784 ;; Defined at:
  2785 ;;		line 231 in file "../src/my_i2c.c"
  2786 ;; Parameters:    Size  Location     Type
  2787 ;;  addr            1    wreg     unsigned char 
  2788 ;; Auto vars:     Size  Location     Type
  2789 ;;  addr            1   50[BANK0 ] unsigned char 
  2790 ;; Return value:  Size  Location     Type
  2791 ;;		None               void
  2792 ;; Registers used:
  2793 ;;		wreg, status,2, status,0
  2794 ;; Tracked objects:
  2795 ;;		On entry : 0/0
  2796 ;;		On exit  : 0/0
  2797 ;;		Unchanged: 0/0
  2798 ;; Data sizes:     COMRAM   BANK0   BANK1   BANK2   BANK3   BANK4   BANK5   BANK6   BANK7   BANK8   BANK9  BANK10  BANK1
      +1  BANK12  BANK13  BANK14
  2799 ;;      Params:         0       0       0       0       0       0       0       0       0       0       0       0       
      +0       0       0       0
  2800 ;;      Locals:         0       1       0       0       0       0       0       0       0       0       0       0       
      +0       0       0       0
  2801 ;;      Temps:          0       0       0       0       0       0       0       0       0       0       0       0       
      +0       0       0       0
  2802 ;;      Totals:         0       1       0       0       0       0       0       0       0       0       0       0       
      +0       0       0       0
  2803 ;;Total ram usage:        1 bytes
  2804 ;; Hardware stack levels used:    1
  2805 ;; Hardware stack levels required when called:   10
  2806 ;; This function calls:
  2807 ;;		Nothing
  2808 ;; This function is called by:
  2809 ;;		_main
  2810 ;; This function uses a non-reentrant model
  2811 ;;
  2812                           
  2813                           	psect	text14
  2814  001776                     __ptext14:
  2815                           	opt stack 0
  2816  001776                     _i2c_configure_slave:
  2817                           	opt stack 20
  2818                           
  2819                           ; BSR set to: 0
  2820                           ;incstack = 0
  2821                           ;i2c_configure_slave@addr stored from wreg
  2822  001776  0100               	movlb	0	; () banked
  2823  001778  6FC9               	movwf	i2c_configure_slave@addr& (0+255),b
  2824                           
  2825                           ; BSR set to: 0
  2826                           ;my_i2c.c: 234: TRISBbits.TRISB4 = 1;
  2827  00177A  8893               	bsf	3987,4,c	;volatile
  2828                           
  2829                           ;my_i2c.c: 235: TRISBbits.TRISB5 = 1;
  2830  00177C  8A93               	bsf	3987,5,c	;volatile
  2831                           
  2832                           ; BSR set to: 0
  2833                           ;my_i2c.c: 238: SSPADD = addr;
  2834  00177E  C0C9  FFC8         	movff	i2c_configure_slave@addr,4040	;volatile
  2835                           
  2836                           ; BSR set to: 0
  2837                           ;my_i2c.c: 239: SSPSTAT = 0x0;
  2838  001782  0E00               	movlw	0
  2839  001784  6EC7               	movwf	4039,c	;volatile
  2840                           
  2841                           ; BSR set to: 0
  2842                           ;my_i2c.c: 240: SSPCON1 = 0x0;
  2843  001786  0E00               	movlw	0
  2844  001788  6EC6               	movwf	4038,c	;volatile
  2845                           
  2846                           ; BSR set to: 0
  2847                           ;my_i2c.c: 241: SSPCON2 = 0x0;
  2848  00178A  0E00               	movlw	0
  2849  00178C  6EC5               	movwf	4037,c	;volatile
  2850                           
  2851                           ; BSR set to: 0
  2852                           ;my_i2c.c: 242: SSPCON1 |= 0x0E;
  2853  00178E  0E0E               	movlw	14
  2854  001790  12C6               	iorwf	4038,f,c	;volatile
  2855                           
  2856                           ; BSR set to: 0
  2857                           ;my_i2c.c: 243: SSPSTAT |= 0b10000000;
  2858  001792  8EC7               	bsf	4039,7,c	;volatile
  2859                           
  2860                           ; BSR set to: 0
  2861                           ;my_i2c.c: 245: PORTBbits.SCL1 = 1;
  2862  001794  8881               	bsf	3969,4,c	;volatile
  2863                           
  2864                           ; BSR set to: 0
  2865                           ;my_i2c.c: 246: PORTBbits.SDA1 = 1;
  2866  001796  8A81               	bsf	3969,5,c	;volatile
  2867                           
  2868                           ; BSR set to: 0
  2869                           ;my_i2c.c: 249: SSPCON2bits.SEN = 1;
  2870  001798  80C5               	bsf	4037,0,c	;volatile
  2871                           
  2872                           ; BSR set to: 0
  2873                           ;my_i2c.c: 250: SSPCON1 |= 0b00100000;
  2874  00179A  8AC6               	bsf	4038,5,c	;volatile
  2875                           
  2876                           ; BSR set to: 0
  2877  00179C  0012               	return	
  2878  00179E                     __end_of_i2c_configure_slave:
  2879                           	opt stack 0
  2880                           tblptru	equ	0xFF8
  2881                           prodh	equ	0xFF4
  2882                           prodl	equ	0xFF3
  2883                           intcon2	equ	0xFF1
  2884                           postinc0	equ	0xFEE
  2885                           wreg	equ	0xFE8
  2886                           indf1	equ	0xFE7
  2887                           fsr1h	equ	0xFE2
  2888                           fsr1l	equ	0xFE1
  2889                           indf2	equ	0xFDF
  2890                           postinc2	equ	0xFDE
  2891                           postdec2	equ	0xFDD
  2892                           fsr2h	equ	0xFDA
  2893                           fsr2l	equ	0xFD9
  2894                           status	equ	0xFD8
  2895                           
  2896 ;; *************** function _enable_interrupts *****************
  2897 ;; Defined at:
  2898 ;;		line 15 in file "../src/interrupts.c"
  2899 ;; Parameters:    Size  Location     Type
  2900 ;;		None
  2901 ;; Auto vars:     Size  Location     Type
  2902 ;;		None
  2903 ;; Return value:  Size  Location     Type
  2904 ;;		None               void
  2905 ;; Registers used:
  2906 ;;		None
  2907 ;; Tracked objects:
  2908 ;;		On entry : 0/0
  2909 ;;		On exit  : 0/0
  2910 ;;		Unchanged: 0/0
  2911 ;; Data sizes:     COMRAM   BANK0   BANK1   BANK2   BANK3   BANK4   BANK5   BANK6   BANK7   BANK8   BANK9  BANK10  BANK1
      +1  BANK12  BANK13  BANK14
  2912 ;;      Params:         0       0       0       0       0       0       0       0       0       0       0       0       
      +0       0       0       0
  2913 ;;      Locals:         0       0       0       0       0       0       0       0       0       0       0       0       
      +0       0       0       0
  2914 ;;      Temps:          0       0       0       0       0       0       0       0       0       0       0       0       
      +0       0       0       0
  2915 ;;      Totals:         0       0       0       0       0       0       0       0       0       0       0       0       
      +0       0       0       0
  2916 ;;Total ram usage:        0 bytes
  2917 ;; Hardware stack levels used:    1
  2918 ;; Hardware stack levels required when called:   10
  2919 ;; This function calls:
  2920 ;;		Nothing
  2921 ;; This function is called by:
  2922 ;;		_main
  2923 ;; This function uses a non-reentrant model
  2924 ;;
  2925                           
  2926                           	psect	text15
  2927  0018F4                     __ptext15:
  2928                           	opt stack 0
  2929  0018F4                     _enable_interrupts:
  2930                           	opt stack 20
  2931                           
  2932                           ;interrupts.c: 18: RCONbits.IPEN = 1;
  2933                           
  2934                           ; BSR set to: 0
  2935                           ;incstack = 0
  2936  0018F4  8ED0               	bsf	4048,7,c	;volatile
  2937                           
  2938                           ;interrupts.c: 19: INTCONbits.GIEH = 1;
  2939  0018F6  8EF2               	bsf	intcon,7,c	;volatile
  2940                           
  2941                           ;interrupts.c: 20: INTCONbits.GIEL = 1;
  2942  0018F8  8CF2               	bsf	intcon,6,c	;volatile
  2943  0018FA  0012               	return	
  2944  0018FC                     __end_of_enable_interrupts:
  2945                           	opt stack 0
  2946                           tblptru	equ	0xFF8
  2947                           prodh	equ	0xFF4
  2948                           prodl	equ	0xFF3
  2949                           intcon	equ	0xFF2
  2950                           intcon2	equ	0xFF1
  2951                           postinc0	equ	0xFEE
  2952                           wreg	equ	0xFE8
  2953                           indf1	equ	0xFE7
  2954                           fsr1h	equ	0xFE2
  2955                           fsr1l	equ	0xFE1
  2956                           indf2	equ	0xFDF
  2957                           postinc2	equ	0xFDE
  2958                           postdec2	equ	0xFDD
  2959                           fsr2h	equ	0xFDA
  2960                           fsr2l	equ	0xFD9
  2961                           status	equ	0xFD8
  2962                           
  2963 ;; *************** function _block_on_To_msgqueues *****************
  2964 ;; Defined at:
  2965 ;;		line 321 in file "../src/messages.c"
  2966 ;; Parameters:    Size  Location     Type
  2967 ;;		None
  2968 ;; Auto vars:     Size  Location     Type
  2969 ;;		None
  2970 ;; Return value:  Size  Location     Type
  2971 ;;		None               void
  2972 ;; Registers used:
  2973 ;;		wreg, fsr2l, fsr2h, status,2, status,0, prodl, prodh, cstack
  2974 ;; Tracked objects:
  2975 ;;		On entry : 0/0
  2976 ;;		On exit  : 0/0
  2977 ;;		Unchanged: 0/0
  2978 ;; Data sizes:     COMRAM   BANK0   BANK1   BANK2   BANK3   BANK4   BANK5   BANK6   BANK7   BANK8   BANK9  BANK10  BANK1
      +1  BANK12  BANK13  BANK14
  2979 ;;      Params:         0       0       0       0       0       0       0       0       0       0       0       0       
      +0       0       0       0
  2980 ;;      Locals:         0       0       0       0       0       0       0       0       0       0       0       0       
      +0       0       0       0
  2981 ;;      Temps:          0       0       0       0       0       0       0       0       0       0       0       0       
      +0       0       0       0
  2982 ;;      Totals:         0       0       0       0       0       0       0       0       0       0       0       0       
      +0       0       0       0
  2983 ;;Total ram usage:        0 bytes
  2984 ;; Hardware stack levels used:    1
  2985 ;; Hardware stack levels required when called:   13
  2986 ;; This function calls:
  2987 ;;		_Delay1KTCYx
  2988 ;;		_check_msg
  2989 ;;		_in_main
  2990 ;; This function is called by:
  2991 ;;		_main
  2992 ;; This function uses a non-reentrant model
  2993 ;;
  2994                           
  2995                           	psect	text16
  2996  0011BE                     __ptext16:
  2997                           	opt stack 0
  2998  0011BE                     _block_on_To_msgqueues:
  2999                           	opt stack 17
  3000                           
  3001                           ;messages.c: 322: if (!in_main()) {
  3002                           
  3003                           ;incstack = 0
  3004  0011BE  EC72  F00A         	call	_in_main	;wreg free
  3005  0011C2  0101               	movlb	1	; () banked
  3006  0011C4  51A5               	movf	(?_in_main+1)& (0+255),w,b
  3007  0011C6  0101               	movlb	1	; () banked
  3008  0011C8  11A4               	iorwf	?_in_main& (0+255),w,b
  3009  0011CA  B4D8               	btfsc	status,2,c
  3010  0011CC  0012               	return	
  3011                           
  3012                           ; BSR set to: 1
  3013                           ;messages.c: 324: }
  3014                           ;messages.c: 328: MQ_Main_Willing_to_block = 1;
  3015                           
  3016                           ; BSR set to: 1
  3017                           
  3018                           ; BSR set to: 1
  3019                           ;messages.c: 323: return;
  3020  0011CE  0E01               	movlw	1
  3021  0011D0  0100               	movlb	0	; () banked
  3022  0011D2  6F60               	movwf	_MQ_Main_Willing_to_block& (0+255),b
  3023  0011D4                     l3469:
  3024                           
  3025                           ;messages.c: 330: if (check_msg(&ToMainHigh_MQ)) {
  3026  0011D4  0101               	movlb	1	; () banked
  3027  0011D6  0E01               	movlw	high _ToMainHigh_MQ
  3028  0011D8  0100               	movlb	0	; () banked
  3029  0011DA  6FCA               	movwf	(check_msg@qptr+1)& (0+255),b
  3030  0011DC  0101               	movlb	1	; () banked
  3031  0011DE  0E6C               	movlw	low _ToMainHigh_MQ
  3032  0011E0  0100               	movlb	0	; () banked
  3033  0011E2  6FC9               	movwf	check_msg@qptr& (0+255),b
  3034  0011E4  EC00  F00B         	call	_check_msg	;wreg free
  3035  0011E8  0900               	iorlw	0
  3036  0011EA  B4D8               	btfsc	status,2,c
  3037  0011EC  D004               	goto	l3475
  3038                           
  3039                           ;messages.c: 331: MQ_Main_Willing_to_block = 0;
  3040  0011EE  0E00               	movlw	0
  3041  0011F0  0100               	movlb	0	; () banked
  3042  0011F2  6F60               	movwf	_MQ_Main_Willing_to_block& (0+255),b
  3043  0011F4  0012               	return	
  3044  0011F6                     l3475:
  3045                           
  3046                           ;messages.c: 336: }
  3047                           ;messages.c: 337: if (check_msg(&ToMainLow_MQ)) {
  3048  0011F6  0100               	movlb	0	; () banked
  3049  0011F8  0E00               	movlw	high _ToMainLow_MQ
  3050  0011FA  0100               	movlb	0	; () banked
  3051  0011FC  6FCA               	movwf	(check_msg@qptr+1)& (0+255),b
  3052  0011FE  0100               	movlb	0	; () banked
  3053  001200  0E61               	movlw	low _ToMainLow_MQ
  3054  001202  0100               	movlb	0	; () banked
  3055  001204  6FC9               	movwf	check_msg@qptr& (0+255),b
  3056  001206  EC00  F00B         	call	_check_msg	;wreg free
  3057  00120A  0900               	iorlw	0
  3058  00120C  B4D8               	btfsc	status,2,c
  3059  00120E  D004               	goto	l3481
  3060                           
  3061                           ;messages.c: 338: MQ_Main_Willing_to_block = 0;
  3062  001210  0E00               	movlw	0
  3063  001212  0100               	movlb	0	; () banked
  3064  001214  6F60               	movwf	_MQ_Main_Willing_to_block& (0+255),b
  3065  001216  0012               	return	
  3066  001218                     l3481:
  3067                           
  3068                           ;messages.c: 343: }
  3069                           ;messages.c: 344: Delay1KTCYx(10);
  3070  001218  0E0A               	movlw	10
  3071  00121A  EC2A  F00C         	call	_Delay1KTCYx
  3072  00121E  D7DA               	goto	l3469
  3073  001220                     __end_of_block_on_To_msgqueues:
  3074                           	opt stack 0
  3075                           tblptru	equ	0xFF8
  3076                           prodh	equ	0xFF4
  3077                           prodl	equ	0xFF3
  3078                           intcon	equ	0xFF2
  3079                           intcon2	equ	0xFF1
  3080                           postinc0	equ	0xFEE
  3081                           wreg	equ	0xFE8
  3082                           indf1	equ	0xFE7
  3083                           fsr1h	equ	0xFE2
  3084                           fsr1l	equ	0xFE1
  3085                           indf2	equ	0xFDF
  3086                           postinc2	equ	0xFDE
  3087                           postdec2	equ	0xFDD
  3088                           fsr2h	equ	0xFDA
  3089                           fsr2l	equ	0xFD9
  3090                           status	equ	0xFD8
  3091                           
  3092 ;; *************** function _in_main *****************
  3093 ;; Defined at:
  3094 ;;		line 41 in file "../src/interrupts.c"
  3095 ;; Parameters:    Size  Location     Type
  3096 ;;		None
  3097 ;; Auto vars:     Size  Location     Type
  3098 ;;		None
  3099 ;; Return value:  Size  Location     Type
  3100 ;;                  2    2[BANK1 ] int 
  3101 ;; Registers used:
  3102 ;;		wreg, status,2, status,0, cstack
  3103 ;; Tracked objects:
  3104 ;;		On entry : 0/0
  3105 ;;		On exit  : 0/0
  3106 ;;		Unchanged: 0/0
  3107 ;; Data sizes:     COMRAM   BANK0   BANK1   BANK2   BANK3   BANK4   BANK5   BANK6   BANK7   BANK8   BANK9  BANK10  BANK1
      +1  BANK12  BANK13  BANK14
  3108 ;;      Params:         0       0       2       0       0       0       0       0       0       0       0       0       
      +0       0       0       0
  3109 ;;      Locals:         0       0       0       0       0       0       0       0       0       0       0       0       
      +0       0       0       0
  3110 ;;      Temps:          0       0       0       0       0       0       0       0       0       0       0       0       
      +0       0       0       0
  3111 ;;      Totals:         0       0       2       0       0       0       0       0       0       0       0       0       
      +0       0       0       0
  3112 ;;Total ram usage:        2 bytes
  3113 ;; Hardware stack levels used:    1
  3114 ;; Hardware stack levels required when called:   12
  3115 ;; This function calls:
  3116 ;;		_in_high_int
  3117 ;;		_in_low_int
  3118 ;; This function is called by:
  3119 ;;		_block_on_To_msgqueues
  3120 ;; This function uses a non-reentrant model
  3121 ;;
  3122                           
  3123                           	psect	text17
  3124  0014E4                     __ptext17:
  3125                           	opt stack 0
  3126  0014E4                     _in_main:
  3127                           	opt stack 17
  3128                           
  3129                           ;interrupts.c: 42: if ((!in_low_int()) && (!in_high_int())) {
  3130                           
  3131                           ;incstack = 0
  3132  0014E4  EC34  F00A         	call	_in_low_int	;wreg free
  3133  0014E8  0101               	movlb	1	; () banked
  3134  0014EA  51A3               	movf	(?_in_low_int+1)& (0+255),w,b
  3135  0014EC  0101               	movlb	1	; () banked
  3136  0014EE  11A2               	iorwf	?_in_low_int& (0+255),w,b
  3137  0014F0  A4D8               	btfss	status,2,c
  3138  0014F2  D00F               	goto	l3059
  3139                           
  3140                           ; BSR set to: 1
  3141  0014F4  EC6A  F00C         	call	_in_high_int	;wreg free
  3142  0014F8  0100               	movlb	0	; () banked
  3143  0014FA  51CA               	movf	(?_in_high_int+1)& (0+255),w,b
  3144  0014FC  0100               	movlb	0	; () banked
  3145  0014FE  11C9               	iorwf	?_in_high_int& (0+255),w,b
  3146  001500  A4D8               	btfss	status,2,c
  3147  001502  D007               	goto	l3059
  3148                           
  3149                           ; BSR set to: 0
  3150                           ;interrupts.c: 43: return (1);
  3151  001504  0E00               	movlw	0
  3152  001506  0101               	movlb	1	; () banked
  3153  001508  6FA5               	movwf	(?_in_main+1)& (0+255),b
  3154  00150A  0E01               	movlw	1
  3155  00150C  0101               	movlb	1	; () banked
  3156  00150E  6FA4               	movwf	?_in_main& (0+255),b
  3157  001510  0012               	return	
  3158  001512                     l3059:
  3159                           
  3160                           ;interrupts.c: 45: return (0);
  3161  001512  0E00               	movlw	0
  3162  001514  0101               	movlb	1	; () banked
  3163  001516  6FA5               	movwf	(?_in_main+1)& (0+255),b
  3164  001518  0E00               	movlw	0
  3165  00151A  0101               	movlb	1	; () banked
  3166  00151C  6FA4               	movwf	?_in_main& (0+255),b
  3167  00151E  0012               	return	
  3168  001520                     __end_of_in_main:
  3169                           	opt stack 0
  3170                           tblptru	equ	0xFF8
  3171                           prodh	equ	0xFF4
  3172                           prodl	equ	0xFF3
  3173                           intcon	equ	0xFF2
  3174                           intcon2	equ	0xFF1
  3175                           postinc0	equ	0xFEE
  3176                           wreg	equ	0xFE8
  3177                           indf1	equ	0xFE7
  3178                           fsr1h	equ	0xFE2
  3179                           fsr1l	equ	0xFE1
  3180                           indf2	equ	0xFDF
  3181                           postinc2	equ	0xFDE
  3182                           postdec2	equ	0xFDD
  3183                           fsr2h	equ	0xFDA
  3184                           fsr2l	equ	0xFD9
  3185                           status	equ	0xFD8
  3186                           
  3187 ;; *************** function _in_low_int *****************
  3188 ;; Defined at:
  3189 ;;		line 31 in file "../src/interrupts.c"
  3190 ;; Parameters:    Size  Location     Type
  3191 ;;		None
  3192 ;; Auto vars:     Size  Location     Type
  3193 ;;		None
  3194 ;; Return value:  Size  Location     Type
  3195 ;;                  2    0[BANK1 ] int 
  3196 ;; Registers used:
  3197 ;;		wreg, status,2, status,0, cstack
  3198 ;; Tracked objects:
  3199 ;;		On entry : 0/0
  3200 ;;		On exit  : 0/0
  3201 ;;		Unchanged: 0/0
  3202 ;; Data sizes:     COMRAM   BANK0   BANK1   BANK2   BANK3   BANK4   BANK5   BANK6   BANK7   BANK8   BANK9  BANK10  BANK1
      +1  BANK12  BANK13  BANK14
  3203 ;;      Params:         0       0       2       0       0       0       0       0       0       0       0       0       
      +0       0       0       0
  3204 ;;      Locals:         0       0       0       0       0       0       0       0       0       0       0       0       
      +0       0       0       0
  3205 ;;      Temps:          0       0       0       0       0       0       0       0       0       0       0       0       
      +0       0       0       0
  3206 ;;      Totals:         0       0       2       0       0       0       0       0       0       0       0       0       
      +0       0       0       0
  3207 ;;Total ram usage:        2 bytes
  3208 ;; Hardware stack levels used:    1
  3209 ;; Hardware stack levels required when called:   11
  3210 ;; This function calls:
  3211 ;;		_in_high_int
  3212 ;; This function is called by:
  3213 ;;		_in_main
  3214 ;; This function uses a non-reentrant model
  3215 ;;
  3216                           
  3217                           	psect	text18
  3218  001468                     __ptext18:
  3219                           	opt stack 0
  3220  001468                     _in_low_int:
  3221                           	opt stack 17
  3222                           
  3223                           ;interrupts.c: 32: if (INTCONbits.GIEL == 1) {
  3224                           
  3225                           ; BSR set to: 1
  3226                           ;incstack = 0
  3227  001468  ACF2               	btfss	intcon,6,c	;volatile
  3228  00146A  D007               	goto	l2933
  3229                           
  3230                           ;interrupts.c: 33: return (0);
  3231  00146C  0E00               	movlw	0
  3232  00146E  0101               	movlb	1	; () banked
  3233  001470  6FA3               	movwf	(?_in_low_int+1)& (0+255),b
  3234  001472  0E00               	movlw	0
  3235  001474  0101               	movlb	1	; () banked
  3236  001476  6FA2               	movwf	?_in_low_int& (0+255),b
  3237  001478  0012               	return	
  3238  00147A                     l2933:
  3239  00147A  EC6A  F00C         	call	_in_high_int	;wreg free
  3240  00147E  0100               	movlb	0	; () banked
  3241  001480  51CA               	movf	(?_in_high_int+1)& (0+255),w,b
  3242  001482  0100               	movlb	0	; () banked
  3243  001484  11C9               	iorwf	?_in_high_int& (0+255),w,b
  3244  001486  B4D8               	btfsc	status,2,c
  3245  001488  D007               	goto	l2941
  3246                           
  3247                           ; BSR set to: 0
  3248                           ;interrupts.c: 35: return (0);
  3249  00148A  0E00               	movlw	0
  3250  00148C  0101               	movlb	1	; () banked
  3251  00148E  6FA3               	movwf	(?_in_low_int+1)& (0+255),b
  3252  001490  0E00               	movlw	0
  3253  001492  0101               	movlb	1	; () banked
  3254  001494  6FA2               	movwf	?_in_low_int& (0+255),b
  3255  001496  0012               	return	
  3256  001498                     l2941:
  3257                           
  3258                           ;interrupts.c: 37: return (1);
  3259  001498  0E00               	movlw	0
  3260  00149A  0101               	movlb	1	; () banked
  3261  00149C  6FA3               	movwf	(?_in_low_int+1)& (0+255),b
  3262  00149E  0E01               	movlw	1
  3263  0014A0  0101               	movlb	1	; () banked
  3264  0014A2  6FA2               	movwf	?_in_low_int& (0+255),b
  3265  0014A4  0012               	return	
  3266  0014A6                     __end_of_in_low_int:
  3267                           	opt stack 0
  3268                           tblptru	equ	0xFF8
  3269                           prodh	equ	0xFF4
  3270                           prodl	equ	0xFF3
  3271                           intcon	equ	0xFF2
  3272                           intcon2	equ	0xFF1
  3273                           postinc0	equ	0xFEE
  3274                           wreg	equ	0xFE8
  3275                           indf1	equ	0xFE7
  3276                           fsr1h	equ	0xFE2
  3277                           fsr1l	equ	0xFE1
  3278                           indf2	equ	0xFDF
  3279                           postinc2	equ	0xFDE
  3280                           postdec2	equ	0xFDD
  3281                           fsr2h	equ	0xFDA
  3282                           fsr2l	equ	0xFD9
  3283                           status	equ	0xFD8
  3284                           
  3285 ;; *************** function _in_high_int *****************
  3286 ;; Defined at:
  3287 ;;		line 23 in file "../src/interrupts.c"
  3288 ;; Parameters:    Size  Location     Type
  3289 ;;		None
  3290 ;; Auto vars:     Size  Location     Type
  3291 ;;		None
  3292 ;; Return value:  Size  Location     Type
  3293 ;;                  2   50[BANK0 ] int 
  3294 ;; Registers used:
  3295 ;;		wreg, status,2
  3296 ;; Tracked objects:
  3297 ;;		On entry : 0/0
  3298 ;;		On exit  : 0/0
  3299 ;;		Unchanged: 0/0
  3300 ;; Data sizes:     COMRAM   BANK0   BANK1   BANK2   BANK3   BANK4   BANK5   BANK6   BANK7   BANK8   BANK9  BANK10  BANK1
      +1  BANK12  BANK13  BANK14
  3301 ;;      Params:         0       2       0       0       0       0       0       0       0       0       0       0       
      +0       0       0       0
  3302 ;;      Locals:         0       0       0       0       0       0       0       0       0       0       0       0       
      +0       0       0       0
  3303 ;;      Temps:          0       0       0       0       0       0       0       0       0       0       0       0       
      +0       0       0       0
  3304 ;;      Totals:         0       2       0       0       0       0       0       0       0       0       0       0       
      +0       0       0       0
  3305 ;;Total ram usage:        2 bytes
  3306 ;; Hardware stack levels used:    1
  3307 ;; Hardware stack levels required when called:   10
  3308 ;; This function calls:
  3309 ;;		Nothing
  3310 ;; This function is called by:
  3311 ;;		_in_low_int
  3312 ;;		_in_main
  3313 ;; This function uses a non-reentrant model
  3314 ;;
  3315                           
  3316                           	psect	text19
  3317  0018D4                     __ptext19:
  3318                           	opt stack 0
  3319  0018D4                     _in_high_int:
  3320                           	opt stack 17
  3321                           
  3322                           ;interrupts.c: 24: return (!INTCONbits.GIEH);
  3323                           
  3324                           ; BSR set to: 1
  3325                           ;incstack = 0
  3326  0018D4  0E00               	movlw	0
  3327  0018D6  AEF2               	btfss	intcon,7,c	;volatile
  3328  0018D8  0E01               	movlw	1
  3329  0018DA  0100               	movlb	0	; () banked
  3330  0018DC  6FC9               	movwf	?_in_high_int& (0+255),b
  3331  0018DE  0100               	movlb	0	; () banked
  3332  0018E0  6BCA               	clrf	(?_in_high_int+1)& (0+255),b
  3333  0018E2  0012               	return	
  3334  0018E4                     __end_of_in_high_int:
  3335                           	opt stack 0
  3336                           tblptru	equ	0xFF8
  3337                           prodh	equ	0xFF4
  3338                           prodl	equ	0xFF3
  3339                           intcon	equ	0xFF2
  3340                           intcon2	equ	0xFF1
  3341                           postinc0	equ	0xFEE
  3342                           wreg	equ	0xFE8
  3343                           indf1	equ	0xFE7
  3344                           fsr1h	equ	0xFE2
  3345                           fsr1l	equ	0xFE1
  3346                           indf2	equ	0xFDF
  3347                           postinc2	equ	0xFDE
  3348                           postdec2	equ	0xFDD
  3349                           fsr2h	equ	0xFDA
  3350                           fsr2l	equ	0xFD9
  3351                           status	equ	0xFD8
  3352                           
  3353 ;; *************** function _check_msg *****************
  3354 ;; Defined at:
  3355 ;;		line 285 in file "../src/messages.c"
  3356 ;; Parameters:    Size  Location     Type
  3357 ;;  qptr            2   50[BANK0 ] PTR struct __msg_queue
  3358 ;;		 -> ToMainHigh_MQ(54), ToMainLow_MQ(54), 
  3359 ;; Auto vars:     Size  Location     Type
  3360 ;;		None
  3361 ;; Return value:  Size  Location     Type
  3362 ;;                  1    wreg      unsigned char 
  3363 ;; Registers used:
  3364 ;;		wreg, fsr2l, fsr2h, status,2, status,0, prodl, prodh
  3365 ;; Tracked objects:
  3366 ;;		On entry : 0/0
  3367 ;;		On exit  : 0/0
  3368 ;;		Unchanged: 0/0
  3369 ;; Data sizes:     COMRAM   BANK0   BANK1   BANK2   BANK3   BANK4   BANK5   BANK6   BANK7   BANK8   BANK9  BANK10  BANK1
      +1  BANK12  BANK13  BANK14
  3370 ;;      Params:         0       2       0       0       0       0       0       0       0       0       0       0       
      +0       0       0       0
  3371 ;;      Locals:         0       0       0       0       0       0       0       0       0       0       0       0       
      +0       0       0       0
  3372 ;;      Temps:          0       1       0       0       0       0       0       0       0       0       0       0       
      +0       0       0       0
  3373 ;;      Totals:         0       3       0       0       0       0       0       0       0       0       0       0       
      +0       0       0       0
  3374 ;;Total ram usage:        3 bytes
  3375 ;; Hardware stack levels used:    1
  3376 ;; Hardware stack levels required when called:   10
  3377 ;; This function calls:
  3378 ;;		Nothing
  3379 ;; This function is called by:
  3380 ;;		_block_on_To_msgqueues
  3381 ;; This function uses a non-reentrant model
  3382 ;;
  3383                           
  3384                           	psect	text20
  3385  001600                     __ptext20:
  3386                           	opt stack 0
  3387  001600                     _check_msg:
  3388                           	opt stack 19
  3389                           
  3390                           ;messages.c: 286: return (qptr->queue[qptr->cur_read_ind].full);
  3391                           
  3392                           ; BSR set to: 0
  3393                           ;incstack = 0
  3394  001600  0100               	movlb	0	; () banked
  3395  001602  EE20 F035          	lfsr	2,53
  3396  001606  0100               	movlb	0	; () banked
  3397  001608  51C9               	movf	check_msg@qptr& (0+255),w,b
  3398  00160A  26D9               	addwf	fsr2l,f,c
  3399  00160C  0100               	movlb	0	; () banked
  3400  00160E  51CA               	movf	(check_msg@qptr+1)& (0+255),w,b
  3401  001610  22DA               	addwfc	fsr2h,f,c
  3402  001612  50DF               	movf	indf2,w,c
  3403  001614  0100               	movlb	0	; () banked
  3404  001616  6FCB               	movwf	??_check_msg& (0+255),b
  3405  001618  0100               	movlb	0	; () banked
  3406  00161A  51CB               	movf	??_check_msg& (0+255),w,b
  3407  00161C  0D0D               	mullw	13
  3408  00161E  50F3               	movf	prodl,w,c
  3409  001620  0100               	movlb	0	; () banked
  3410  001622  25C9               	addwf	check_msg@qptr& (0+255),w,b
  3411  001624  6ED9               	movwf	fsr2l,c
  3412  001626  50F4               	movf	prodh,w,c
  3413  001628  0100               	movlb	0	; () banked
  3414  00162A  21CA               	addwfc	(check_msg@qptr+1)& (0+255),w,b
  3415  00162C  6EDA               	movwf	fsr2h,c
  3416  00162E  50DF               	movf	indf2,w,c
  3417  001630  0012               	return	
  3418  001632                     __end_of_check_msg:
  3419                           	opt stack 0
  3420                           tblptru	equ	0xFF8
  3421                           prodh	equ	0xFF4
  3422                           prodl	equ	0xFF3
  3423                           intcon	equ	0xFF2
  3424                           intcon2	equ	0xFF1
  3425                           postinc0	equ	0xFEE
  3426                           wreg	equ	0xFE8
  3427                           indf1	equ	0xFE7
  3428                           fsr1h	equ	0xFE2
  3429                           fsr1l	equ	0xFE1
  3430                           indf2	equ	0xFDF
  3431                           postinc2	equ	0xFDE
  3432                           postdec2	equ	0xFDD
  3433                           fsr2h	equ	0xFDA
  3434                           fsr2l	equ	0xFD9
  3435                           status	equ	0xFD8
  3436                           
  3437 ;; *************** function _Delay1KTCYx *****************
  3438 ;; Defined at:
  3439 ;;		line 8 in file "C:\Program Files (x86)\Microchip\xc8\v1.33\sources\pic18\d1ktcyx.c"
  3440 ;; Parameters:    Size  Location     Type
  3441 ;;  unit            1    wreg     unsigned char 
  3442 ;; Auto vars:     Size  Location     Type
  3443 ;;  unit            1   50[BANK0 ] unsigned char 
  3444 ;; Return value:  Size  Location     Type
  3445 ;;		None               void
  3446 ;; Registers used:
  3447 ;;		wreg
  3448 ;; Tracked objects:
  3449 ;;		On entry : 0/0
  3450 ;;		On exit  : 0/0
  3451 ;;		Unchanged: 0/0
  3452 ;; Data sizes:     COMRAM   BANK0   BANK1   BANK2   BANK3   BANK4   BANK5   BANK6   BANK7   BANK8   BANK9  BANK10  BANK1
      +1  BANK12  BANK13  BANK14
  3453 ;;      Params:         0       0       0       0       0       0       0       0       0       0       0       0       
      +0       0       0       0
  3454 ;;      Locals:         0       1       0       0       0       0       0       0       0       0       0       0       
      +0       0       0       0
  3455 ;;      Temps:          0       0       0       0       0       0       0       0       0       0       0       0       
      +0       0       0       0
  3456 ;;      Totals:         0       1       0       0       0       0       0       0       0       0       0       0       
      +0       0       0       0
  3457 ;;Total ram usage:        1 bytes
  3458 ;; Hardware stack levels used:    1
  3459 ;; Hardware stack levels required when called:   10
  3460 ;; This function calls:
  3461 ;;		Nothing
  3462 ;; This function is called by:
  3463 ;;		_block_on_To_msgqueues
  3464 ;; This function uses a non-reentrant model
  3465 ;;
  3466                           
  3467                           	psect	text21
  3468  001854                     __ptext21:
  3469                           	opt stack 0
  3470  001854                     _Delay1KTCYx:
  3471                           	opt stack 19
  3472                           
  3473                           ; BSR set to: 0
  3474                           ;incstack = 0
  3475                           ;Delay1KTCYx@unit stored from wreg
  3476  001854  0100               	movlb	0	; () banked
  3477  001856  6FC9               	movwf	Delay1KTCYx@unit& (0+255),b
  3478  001858                     l754:
  3479                           
  3480                           ; BSR set to: 0
  3481                           
  3482                           ; BSR set to: 0
  3483  001858  0EFA               	movlw	250
  3484  00185A                     u2617:
  3485  00185A  F000               	nop	
  3486  00185C  2EE8               	decfsz	wreg,f,c
  3487  00185E  D7FD               	goto	u2617
  3488  001860  0100               	movlb	0	; () banked
  3489  001862  2FC9               	decfsz	Delay1KTCYx@unit& (0+255),f,b
  3490  001864  D7F9               	goto	l754
  3491  001866  0012               	return	
  3492  001868                     __end_of_Delay1KTCYx:
  3493                           	opt stack 0
  3494                           tblptru	equ	0xFF8
  3495                           prodh	equ	0xFF4
  3496                           prodl	equ	0xFF3
  3497                           intcon	equ	0xFF2
  3498                           intcon2	equ	0xFF1
  3499                           postinc0	equ	0xFEE
  3500                           wreg	equ	0xFE8
  3501                           indf1	equ	0xFE7
  3502                           fsr1h	equ	0xFE2
  3503                           fsr1l	equ	0xFE1
  3504                           indf2	equ	0xFDF
  3505                           postinc2	equ	0xFDE
  3506                           postdec2	equ	0xFDD
  3507                           fsr2h	equ	0xFDA
  3508                           fsr2l	equ	0xFD9
  3509                           status	equ	0xFD8
  3510                           
  3511 ;; *************** function _ToMainLow_recvmsg *****************
  3512 ;; Defined at:
  3513 ;;		line 113 in file "../src/messages.c"
  3514 ;; Parameters:    Size  Location     Type
  3515 ;;  maxlength       1    wreg     unsigned char 
  3516 ;;  msgtype         2   22[BANK1 ] PTR unsigned char 
  3517 ;;		 -> RAM(3775), main@msgtype(1), 
  3518 ;;  data            2   24[BANK1 ] PTR void 
  3519 ;;		 -> main@msgbuffer(11), 
  3520 ;; Auto vars:     Size  Location     Type
  3521 ;;  maxlength       1   52[BANK0 ] unsigned char 
  3522 ;; Return value:  Size  Location     Type
  3523 ;;                  1    wreg      char 
  3524 ;; Registers used:
  3525 ;;		wreg, fsr1l, fsr1h, fsr2l, fsr2h, status,2, status,0, prodl, prodh, cstack
  3526 ;; Tracked objects:
  3527 ;;		On entry : 0/0
  3528 ;;		On exit  : 0/0
  3529 ;;		Unchanged: 0/0
  3530 ;; Data sizes:     COMRAM   BANK0   BANK1   BANK2   BANK3   BANK4   BANK5   BANK6   BANK7   BANK8   BANK9  BANK10  BANK1
      +1  BANK12  BANK13  BANK14
  3531 ;;      Params:         0       0       4       0       0       0       0       0       0       0       0       0       
      +0       0       0       0
  3532 ;;      Locals:         0       1       0       0       0       0       0       0       0       0       0       0       
      +0       0       0       0
  3533 ;;      Temps:          0       0       0       0       0       0       0       0       0       0       0       0       
      +0       0       0       0
  3534 ;;      Totals:         0       1       4       0       0       0       0       0       0       0       0       0       
      +0       0       0       0
  3535 ;;Total ram usage:        5 bytes
  3536 ;; Hardware stack levels used:    1
  3537 ;; Hardware stack levels required when called:   12
  3538 ;; This function calls:
  3539 ;;		_recv_msg
  3540 ;; This function is called by:
  3541 ;;		_main
  3542 ;; This function uses a non-reentrant model
  3543 ;;
  3544                           
  3545                           	psect	text22
  3546  001594                     __ptext22:
  3547                           	opt stack 0
  3548  001594                     _ToMainLow_recvmsg:
  3549                           	opt stack 18
  3550                           
  3551                           ; BSR set to: 0
  3552                           ;incstack = 0
  3553                           ;ToMainLow_recvmsg@maxlength stored from wreg
  3554  001594  0100               	movlb	0	; () banked
  3555  001596  6FCB               	movwf	ToMainLow_recvmsg@maxlength& (0+255),b
  3556                           
  3557                           ; BSR set to: 0
  3558                           ;messages.c: 119: return (recv_msg(&ToMainLow_MQ, maxlength, msgtype, data));
  3559  001598  0100               	movlb	0	; () banked
  3560  00159A  0E00               	movlw	high _ToMainLow_MQ
  3561  00159C  0101               	movlb	1	; () banked
  3562  00159E  6FAD               	movwf	(recv_msg@qptr+1)& (0+255),b
  3563  0015A0  0100               	movlb	0	; () banked
  3564  0015A2  0E61               	movlw	low _ToMainLow_MQ
  3565  0015A4  0101               	movlb	1	; () banked
  3566  0015A6  6FAC               	movwf	recv_msg@qptr& (0+255),b
  3567  0015A8  C0CB  F1AE         	movff	ToMainLow_recvmsg@maxlength,recv_msg@maxlength
  3568  0015AC  0101               	movlb	1	; () banked
  3569  0015AE  C1B9  F1B0         	movff	ToMainLow_recvmsg@msgtype+1,recv_msg@msgtype+1
  3570  0015B2  0101               	movlb	1	; () banked
  3571  0015B4  C1B8  F1AF         	movff	ToMainLow_recvmsg@msgtype,recv_msg@msgtype
  3572  0015B8  0101               	movlb	1	; () banked
  3573  0015BA  C1BB  F1B2         	movff	ToMainLow_recvmsg@data+1,recv_msg@data+1
  3574  0015BE  0101               	movlb	1	; () banked
  3575  0015C0  C1BA  F1B1         	movff	ToMainLow_recvmsg@data,recv_msg@data
  3576  0015C4  EC5F  F004         	call	_recv_msg	;wreg free
  3577  0015C8  0012               	return	
  3578  0015CA                     __end_of_ToMainLow_recvmsg:
  3579                           	opt stack 0
  3580                           tblptru	equ	0xFF8
  3581                           prodh	equ	0xFF4
  3582                           prodl	equ	0xFF3
  3583                           intcon	equ	0xFF2
  3584                           intcon2	equ	0xFF1
  3585                           postinc0	equ	0xFEE
  3586                           wreg	equ	0xFE8
  3587                           indf1	equ	0xFE7
  3588                           fsr1h	equ	0xFE2
  3589                           fsr1l	equ	0xFE1
  3590                           indf2	equ	0xFDF
  3591                           postinc2	equ	0xFDE
  3592                           postdec2	equ	0xFDD
  3593                           fsr2h	equ	0xFDA
  3594                           fsr2l	equ	0xFD9
  3595                           status	equ	0xFD8
  3596                           
  3597 ;; *************** function _ToMainHigh_recvmsg *****************
  3598 ;; Defined at:
  3599 ;;		line 136 in file "../src/messages.c"
  3600 ;; Parameters:    Size  Location     Type
  3601 ;;  maxlength       1    wreg     unsigned char 
  3602 ;;  msgtype         2   22[BANK1 ] PTR unsigned char 
  3603 ;;		 -> main@msgtype(1), 
  3604 ;;  data            2   24[BANK1 ] PTR void 
  3605 ;;		 -> main@msgbuffer(11), 
  3606 ;; Auto vars:     Size  Location     Type
  3607 ;;  maxlength       1   52[BANK0 ] unsigned char 
  3608 ;; Return value:  Size  Location     Type
  3609 ;;                  1    wreg      char 
  3610 ;; Registers used:
  3611 ;;		wreg, fsr1l, fsr1h, fsr2l, fsr2h, status,2, status,0, prodl, prodh, cstack
  3612 ;; Tracked objects:
  3613 ;;		On entry : 0/0
  3614 ;;		On exit  : 0/0
  3615 ;;		Unchanged: 0/0
  3616 ;; Data sizes:     COMRAM   BANK0   BANK1   BANK2   BANK3   BANK4   BANK5   BANK6   BANK7   BANK8   BANK9  BANK10  BANK1
      +1  BANK12  BANK13  BANK14
  3617 ;;      Params:         0       0       4       0       0       0       0       0       0       0       0       0       
      +0       0       0       0
  3618 ;;      Locals:         0       1       0       0       0       0       0       0       0       0       0       0       
      +0       0       0       0
  3619 ;;      Temps:          0       0       0       0       0       0       0       0       0       0       0       0       
      +0       0       0       0
  3620 ;;      Totals:         0       1       4       0       0       0       0       0       0       0       0       0       
      +0       0       0       0
  3621 ;;Total ram usage:        5 bytes
  3622 ;; Hardware stack levels used:    1
  3623 ;; Hardware stack levels required when called:   12
  3624 ;; This function calls:
  3625 ;;		_recv_msg
  3626 ;; This function is called by:
  3627 ;;		_main
  3628 ;; This function uses a non-reentrant model
  3629 ;;
  3630                           
  3631                           	psect	text23
  3632  0015CA                     __ptext23:
  3633                           	opt stack 0
  3634  0015CA                     _ToMainHigh_recvmsg:
  3635                           	opt stack 18
  3636                           
  3637                           ;incstack = 0
  3638                           ;ToMainHigh_recvmsg@maxlength stored from wreg
  3639  0015CA  0100               	movlb	0	; () banked
  3640  0015CC  6FCB               	movwf	ToMainHigh_recvmsg@maxlength& (0+255),b
  3641                           
  3642                           ; BSR set to: 0
  3643                           ;messages.c: 142: return (recv_msg(&ToMainHigh_MQ, maxlength, msgtype, data));
  3644  0015CE  0101               	movlb	1	; () banked
  3645  0015D0  0E01               	movlw	high _ToMainHigh_MQ
  3646  0015D2  0101               	movlb	1	; () banked
  3647  0015D4  6FAD               	movwf	(recv_msg@qptr+1)& (0+255),b
  3648  0015D6  0101               	movlb	1	; () banked
  3649  0015D8  0E6C               	movlw	low _ToMainHigh_MQ
  3650  0015DA  0101               	movlb	1	; () banked
  3651  0015DC  6FAC               	movwf	recv_msg@qptr& (0+255),b
  3652  0015DE  C0CB  F1AE         	movff	ToMainHigh_recvmsg@maxlength,recv_msg@maxlength
  3653  0015E2  0101               	movlb	1	; () banked
  3654  0015E4  C1B9  F1B0         	movff	ToMainHigh_recvmsg@msgtype+1,recv_msg@msgtype+1
  3655  0015E8  0101               	movlb	1	; () banked
  3656  0015EA  C1B8  F1AF         	movff	ToMainHigh_recvmsg@msgtype,recv_msg@msgtype
  3657  0015EE  0101               	movlb	1	; () banked
  3658  0015F0  C1BB  F1B2         	movff	ToMainHigh_recvmsg@data+1,recv_msg@data+1
  3659  0015F4  0101               	movlb	1	; () banked
  3660  0015F6  C1BA  F1B1         	movff	ToMainHigh_recvmsg@data,recv_msg@data
  3661  0015FA  EC5F  F004         	call	_recv_msg	;wreg free
  3662  0015FE  0012               	return	
  3663  001600                     __end_of_ToMainHigh_recvmsg:
  3664                           	opt stack 0
  3665                           tblptru	equ	0xFF8
  3666                           prodh	equ	0xFF4
  3667                           prodl	equ	0xFF3
  3668                           intcon	equ	0xFF2
  3669                           intcon2	equ	0xFF1
  3670                           postinc0	equ	0xFEE
  3671                           wreg	equ	0xFE8
  3672                           indf1	equ	0xFE7
  3673                           fsr1h	equ	0xFE2
  3674                           fsr1l	equ	0xFE1
  3675                           indf2	equ	0xFDF
  3676                           postinc2	equ	0xFDE
  3677                           postdec2	equ	0xFDD
  3678                           fsr2h	equ	0xFDA
  3679                           fsr2l	equ	0xFD9
  3680                           status	equ	0xFD8
  3681                           
  3682 ;; *************** function _recv_msg *****************
  3683 ;; Defined at:
  3684 ;;		line 64 in file "../src/messages.c"
  3685 ;; Parameters:    Size  Location     Type
  3686 ;;  qptr            2   10[BANK1 ] PTR struct __msg_queue
  3687 ;;		 -> FromMainHigh_MQ(54), FromMainLow_MQ(54), SensorData_MQ(54), ToMainHigh_MQ(54), 
  3688 ;;		 -> ToMainLow_MQ(54), 
  3689 ;;  maxlength       1   12[BANK1 ] unsigned char 
  3690 ;;  msgtype         2   13[BANK1 ] PTR unsigned char 
  3691 ;;		 -> RAM(3775), main@msgtype(1), 
  3692 ;;  data            2   15[BANK1 ] PTR void 
  3693 ;;		 -> NULL(0), main@msgbuffer(11), main@uc(14), 
  3694 ;; Auto vars:     Size  Location     Type
  3695 ;;  qmsg            2   20[BANK1 ] PTR struct __msg
  3696 ;;		 -> FromMainLow_MQ.queue(52), FromMainHigh_MQ.queue(52), SensorData_MQ.queue(52), ToMainHigh_MQ.queue(52), 
  3697 ;;		 -> ToMainLow_MQ.queue(52), FromMainHigh_MQ(54), FromMainLow_MQ(54), SensorData_MQ(54), 
  3698 ;;		 -> ToMainHigh_MQ(54), ToMainLow_MQ(54), 
  3699 ;;  tlength         2   18[BANK1 ] unsigned int 
  3700 ;;  slot            1   17[BANK1 ] unsigned char 
  3701 ;; Return value:  Size  Location     Type
  3702 ;;                  1    wreg      char 
  3703 ;; Registers used:
  3704 ;;		wreg, fsr1l, fsr1h, fsr2l, fsr2h, status,2, status,0, prodl, prodh, cstack
  3705 ;; Tracked objects:
  3706 ;;		On entry : 0/0
  3707 ;;		On exit  : 0/0
  3708 ;;		Unchanged: 0/0
  3709 ;; Data sizes:     COMRAM   BANK0   BANK1   BANK2   BANK3   BANK4   BANK5   BANK6   BANK7   BANK8   BANK9  BANK10  BANK1
      +1  BANK12  BANK13  BANK14
  3710 ;;      Params:         0       0       7       0       0       0       0       0       0       0       0       0       
      +0       0       0       0
  3711 ;;      Locals:         0       0       5       0       0       0       0       0       0       0       0       0       
      +0       0       0       0
  3712 ;;      Temps:          0       2       0       0       0       0       0       0       0       0       0       0       
      +0       0       0       0
  3713 ;;      Totals:         0       2      12       0       0       0       0       0       0       0       0       0       
      +0       0       0       0
  3714 ;;Total ram usage:       14 bytes
  3715 ;; Hardware stack levels used:    1
  3716 ;; Hardware stack levels required when called:   11
  3717 ;; This function calls:
  3718 ;;		_memcpy
  3719 ;; This function is called by:
  3720 ;;		_ToMainLow_recvmsg
  3721 ;;		_ToMainHigh_recvmsg
  3722 ;;		_SensorData_recvmsg
  3723 ;;		_FromMainHigh_recvmsg
  3724 ;; This function uses a non-reentrant model
  3725 ;;
  3726                           
  3727                           	psect	text24
  3728  0008BE                     __ptext24:
  3729                           	opt stack 0
  3730  0008BE                     _recv_msg:
  3731                           	opt stack 18
  3732                           
  3733                           ;messages.c: 65: unsigned char slot;
  3734                           ;messages.c: 69: msg *qmsg;
  3735                           ;messages.c: 70: size_t tlength;
  3736                           ;messages.c: 73: slot = qptr->cur_read_ind;
  3737                           
  3738                           ;incstack = 0
  3739  0008BE  0101               	movlb	1	; () banked
  3740  0008C0  EE20 F035          	lfsr	2,53
  3741  0008C4  0101               	movlb	1	; () banked
  3742  0008C6  51AC               	movf	recv_msg@qptr& (0+255),w,b
  3743  0008C8  26D9               	addwf	fsr2l,f,c
  3744  0008CA  0101               	movlb	1	; () banked
  3745  0008CC  51AD               	movf	(recv_msg@qptr+1)& (0+255),w,b
  3746  0008CE  22DA               	addwfc	fsr2h,f,c
  3747  0008D0  50DF               	movf	indf2,w,c
  3748  0008D2  0101               	movlb	1	; () banked
  3749  0008D4  6FB3               	movwf	recv_msg@slot& (0+255),b
  3750                           
  3751                           ; BSR set to: 1
  3752                           ;messages.c: 74: qmsg = &(qptr->queue[slot]);
  3753  0008D6  0101               	movlb	1	; () banked
  3754  0008D8  51B3               	movf	recv_msg@slot& (0+255),w,b
  3755  0008DA  0D0D               	mullw	13
  3756  0008DC  50F3               	movf	prodl,w,c
  3757  0008DE  0101               	movlb	1	; () banked
  3758  0008E0  25AC               	addwf	recv_msg@qptr& (0+255),w,b
  3759  0008E2  0101               	movlb	1	; () banked
  3760  0008E4  6FB6               	movwf	recv_msg@qmsg& (0+255),b
  3761  0008E6  50F4               	movf	prodh,w,c
  3762  0008E8  0101               	movlb	1	; () banked
  3763  0008EA  21AD               	addwfc	(recv_msg@qptr+1)& (0+255),w,b
  3764  0008EC  0101               	movlb	1	; () banked
  3765  0008EE  6FB7               	movwf	(recv_msg@qmsg+1)& (0+255),b
  3766                           
  3767                           ; BSR set to: 1
  3768                           ;messages.c: 75: if (qmsg->full == 1) {
  3769  0008F0  0E01               	movlw	1
  3770  0008F2  C1B6  FFD9         	movff	recv_msg@qmsg,fsr2l
  3771  0008F6  C1B7  FFDA         	movff	recv_msg@qmsg+1,fsr2h
  3772  0008FA  62DF               	cpfseq	indf2,c
  3773  0008FC  D06D               	goto	l3109
  3774                           
  3775                           ; BSR set to: 1
  3776                           ;messages.c: 77: if (qmsg->length > maxlength) {
  3777  0008FE  0101               	movlb	1	; () banked
  3778  000900  EE20 F001          	lfsr	2,1
  3779  000904  0101               	movlb	1	; () banked
  3780  000906  51B6               	movf	recv_msg@qmsg& (0+255),w,b
  3781  000908  26D9               	addwf	fsr2l,f,c
  3782  00090A  0101               	movlb	1	; () banked
  3783  00090C  51B7               	movf	(recv_msg@qmsg+1)& (0+255),w,b
  3784  00090E  22DA               	addwfc	fsr2h,f,c
  3785  000910  50DF               	movf	indf2,w,c
  3786  000912  0101               	movlb	1	; () banked
  3787  000914  5DAE               	subwf	recv_msg@maxlength& (0+255),w,b
  3788  000916  B0D8               	btfsc	status,0,c
  3789  000918  D002               	goto	l3093
  3790                           
  3791                           ; BSR set to: 1
  3792                           ;messages.c: 78: return (-3);
  3793  00091A  0EFD               	movlw	253
  3794  00091C  0012               	return	
  3795  00091E                     l3093:
  3796                           
  3797                           ; BSR set to: 1
  3798                           ;messages.c: 79: }
  3799                           ;messages.c: 81: tlength = qmsg->length;
  3800  00091E  0101               	movlb	1	; () banked
  3801  000920  EE20 F001          	lfsr	2,1
  3802  000924  0101               	movlb	1	; () banked
  3803  000926  51B6               	movf	recv_msg@qmsg& (0+255),w,b
  3804  000928  26D9               	addwf	fsr2l,f,c
  3805  00092A  0101               	movlb	1	; () banked
  3806  00092C  51B7               	movf	(recv_msg@qmsg+1)& (0+255),w,b
  3807  00092E  22DA               	addwfc	fsr2h,f,c
  3808  000930  50DF               	movf	indf2,w,c
  3809  000932  0100               	movlb	0	; () banked
  3810  000934  6FC9               	movwf	??_recv_msg& (0+255),b
  3811  000936  0100               	movlb	0	; () banked
  3812  000938  51C9               	movf	??_recv_msg& (0+255),w,b
  3813  00093A  0101               	movlb	1	; () banked
  3814  00093C  6FB4               	movwf	recv_msg@tlength& (0+255),b
  3815  00093E  0101               	movlb	1	; () banked
  3816  000940  6BB5               	clrf	(recv_msg@tlength+1)& (0+255),b
  3817                           
  3818                           ; BSR set to: 1
  3819                           ;messages.c: 82: memcpy(data, qmsg->data, tlength);
  3820  000942  0101               	movlb	1	; () banked
  3821  000944  C1B2  F1A3         	movff	recv_msg@data+1,memcpy@d1+1
  3822  000948  0101               	movlb	1	; () banked
  3823  00094A  C1B1  F1A2         	movff	recv_msg@data,memcpy@d1
  3824  00094E  0E03               	movlw	3
  3825  000950  0101               	movlb	1	; () banked
  3826  000952  25B6               	addwf	recv_msg@qmsg& (0+255),w,b
  3827  000954  0100               	movlb	0	; () banked
  3828  000956  6FC9               	movwf	??_recv_msg& (0+255),b
  3829  000958  0E00               	movlw	0
  3830  00095A  0101               	movlb	1	; () banked
  3831  00095C  21B7               	addwfc	(recv_msg@qmsg+1)& (0+255),w,b
  3832  00095E  0100               	movlb	0	; () banked
  3833  000960  6FCA               	movwf	(??_recv_msg+1)& (0+255),b
  3834  000962  C0C9  F1A4         	movff	??_recv_msg,memcpy@s1
  3835  000966  C0CA  F1A5         	movff	??_recv_msg+1,memcpy@s1+1
  3836  00096A  C1B4  F1A6         	movff	recv_msg@tlength,memcpy@n
  3837  00096E  C1B5  F1A7         	movff	recv_msg@tlength+1,memcpy@n+1
  3838  000972  EC9F  F009         	call	_memcpy	;wreg free
  3839                           
  3840                           ;messages.c: 88: qptr->cur_read_ind = (qptr->cur_read_ind + 1) % 4;
  3841  000976  0101               	movlb	1	; () banked
  3842  000978  EE20 F035          	lfsr	2,53
  3843  00097C  0101               	movlb	1	; () banked
  3844  00097E  51AC               	movf	recv_msg@qptr& (0+255),w,b
  3845  000980  26D9               	addwf	fsr2l,f,c
  3846  000982  0101               	movlb	1	; () banked
  3847  000984  51AD               	movf	(recv_msg@qptr+1)& (0+255),w,b
  3848  000986  22DA               	addwfc	fsr2h,f,c
  3849  000988  0101               	movlb	1	; () banked
  3850  00098A  EE10 F035          	lfsr	1,53
  3851  00098E  0101               	movlb	1	; () banked
  3852  000990  51AC               	movf	recv_msg@qptr& (0+255),w,b
  3853  000992  26E1               	addwf	fsr1l,f,c
  3854  000994  0101               	movlb	1	; () banked
  3855  000996  51AD               	movf	(recv_msg@qptr+1)& (0+255),w,b
  3856  000998  22E2               	addwfc	fsr1h,f,c
  3857  00099A  50E7               	movf	indf1,w,c
  3858  00099C  0100               	movlb	0	; () banked
  3859  00099E  6FC9               	movwf	??_recv_msg& (0+255),b
  3860  0009A0  0100               	movlb	0	; () banked
  3861  0009A2  29C9               	incf	??_recv_msg& (0+255),w,b
  3862  0009A4  0B03               	andlw	3
  3863  0009A6  6EDF               	movwf	indf2,c
  3864                           
  3865                           ; BSR set to: 0
  3866                           ;messages.c: 90: (*msgtype) = qmsg->msgtype;
  3867  0009A8  0101               	movlb	1	; () banked
  3868  0009AA  EE20 F002          	lfsr	2,2
  3869  0009AE  0101               	movlb	1	; () banked
  3870  0009B0  51B6               	movf	recv_msg@qmsg& (0+255),w,b
  3871  0009B2  26D9               	addwf	fsr2l,f,c
  3872  0009B4  0101               	movlb	1	; () banked
  3873  0009B6  51B7               	movf	(recv_msg@qmsg+1)& (0+255),w,b
  3874  0009B8  22DA               	addwfc	fsr2h,f,c
  3875  0009BA  C1AF  FFE1         	movff	recv_msg@msgtype,fsr1l
  3876  0009BE  C1B0  FFE2         	movff	recv_msg@msgtype+1,fsr1h
  3877  0009C2  CFDF FFE7          	movff	indf2,indf1
  3878                           
  3879                           ; BSR set to: 1
  3880                           ;messages.c: 92: qmsg->full = 0;
  3881  0009C6  C1B6  FFD9         	movff	recv_msg@qmsg,fsr2l
  3882  0009CA  C1B7  FFDA         	movff	recv_msg@qmsg+1,fsr2h
  3883  0009CE  0E00               	movlw	0
  3884  0009D0  6EDF               	movwf	indf2,c
  3885                           
  3886                           ; BSR set to: 1
  3887                           ;messages.c: 93: return (tlength);
  3888  0009D2  0101               	movlb	1	; () banked
  3889  0009D4  51B4               	movf	recv_msg@tlength& (0+255),w,b
  3890  0009D6  0012               	return	
  3891  0009D8                     l3109:
  3892                           
  3893                           ; BSR set to: 1
  3894                           ;messages.c: 95: return (-4);
  3895  0009D8  0EFC               	movlw	252
  3896  0009DA  0012               	return	
  3897  0009DC                     __end_of_recv_msg:
  3898                           	opt stack 0
  3899                           tblptru	equ	0xFF8
  3900                           prodh	equ	0xFF4
  3901                           prodl	equ	0xFF3
  3902                           intcon	equ	0xFF2
  3903                           intcon2	equ	0xFF1
  3904                           postinc0	equ	0xFEE
  3905                           wreg	equ	0xFE8
  3906                           indf1	equ	0xFE7
  3907                           fsr1h	equ	0xFE2
  3908                           fsr1l	equ	0xFE1
  3909                           indf2	equ	0xFDF
  3910                           postinc2	equ	0xFDE
  3911                           postdec2	equ	0xFDD
  3912                           fsr2h	equ	0xFDA
  3913                           fsr2l	equ	0xFD9
  3914                           status	equ	0xFD8
  3915                           
  3916 ;; *************** function _memcpy *****************
  3917 ;; Defined at:
  3918 ;;		line 11 in file "C:\Program Files (x86)\Microchip\xc8\v1.33\sources\common\memcpy.c"
  3919 ;; Parameters:    Size  Location     Type
  3920 ;;  d1              2    0[BANK1 ] PTR void 
  3921 ;;		 -> main@uc.queue(52), main@ic.queue(52), main@t1thread_data.queue(52), FromMainLow_MQ.queue(52), 
  3922 ;;		 -> FromMainHigh_MQ.queue(52), SensorData_MQ.queue(52), ToMainHigh_MQ.queue(52), ToMainLow_MQ.queue(52), 
  3923 ;;		 -> NULL(0), FromMainHigh_MQ(54), FromMainLow_MQ(54), SensorData_sendmsg@qptr.queue(52), 
  3924 ;;		 -> SensorData_sendmsg@qptr(2), ToMainHigh_MQ(54), ToMainLow_MQ(54), main@msgbuffer(11), 
  3925 ;;		 -> main@uc(14), 
  3926 ;;  s1              2    2[BANK1 ] PTR const void 
  3927 ;;		 -> SensorData_sendmsg@qptr.data(10), SensorData_sendmsg@qptr.queue.data(10), main@t1thread_data.queue.data(10), mai
      +n@ic.queue.data(10), 
  3928 ;;		 -> main@uc.queue.data(10), SensorData_MQ.data(10), SensorData_MQ.queue.data(10), ToMainLow_MQ.data(10), 
  3929 ;;		 -> ToMainHigh_MQ.data(10), FromMainLow_MQ.data(10), FromMainHigh_MQ.data(10), ToMainLow_MQ.queue.data(10), 
  3930 ;;		 -> ToMainHigh_MQ.queue.data(10), FromMainHigh_MQ.queue.data(10), FromMainLow_MQ.queue.data(10), NULL(0), 
  3931 ;;		 -> uart_recv_int_handler@readin(1), i2c_int_handler@error_buf(3), FromMainHigh_MQ(54), FromMainLow_MQ(54), 
  3932 ;;		 -> SensorData_MQ(54), SensorData_sendmsg@qptr(2), ToMainHigh_MQ(54), ToMainLow_MQ(54), 
  3933 ;;		 -> main@msgbuffer(11), main@t1thread_data(2), main@ic(31), 
  3934 ;;  n               2    4[BANK1 ] unsigned int 
  3935 ;; Auto vars:     Size  Location     Type
  3936 ;;  s               2    8[BANK1 ] PTR const unsigned char 
  3937 ;;		 -> SensorData_sendmsg@qptr.data(10), SensorData_sendmsg@qptr.queue.data(10), main@t1thread_data.queue.data(10), mai
      +n@ic.queue.data(10), 
  3938 ;;		 -> main@uc.queue.data(10), SensorData_MQ.data(10), SensorData_MQ.queue.data(10), ToMainLow_MQ.data(10), 
  3939 ;;		 -> ToMainHigh_MQ.data(10), FromMainLow_MQ.data(10), FromMainHigh_MQ.data(10), ToMainLow_MQ.queue.data(10), 
  3940 ;;		 -> ToMainHigh_MQ.queue.data(10), FromMainHigh_MQ.queue.data(10), FromMainLow_MQ.queue.data(10), NULL(0), 
  3941 ;;		 -> uart_recv_int_handler@readin(1), i2c_int_handler@error_buf(3), FromMainHigh_MQ(54), FromMainLow_MQ(54), 
  3942 ;;		 -> SensorData_MQ(54), SensorData_sendmsg@qptr(2), ToMainHigh_MQ(54), ToMainLow_MQ(54), 
  3943 ;;		 -> main@msgbuffer(11), main@t1thread_data(2), main@ic(31), 
  3944 ;;  d               2    6[BANK1 ] PTR unsigned char 
  3945 ;;		 -> main@uc.queue(52), main@ic.queue(52), main@t1thread_data.queue(52), FromMainLow_MQ.queue(52), 
  3946 ;;		 -> FromMainHigh_MQ.queue(52), SensorData_MQ.queue(52), ToMainHigh_MQ.queue(52), ToMainLow_MQ.queue(52), 
  3947 ;;		 -> NULL(0), FromMainHigh_MQ(54), FromMainLow_MQ(54), SensorData_sendmsg@qptr.queue(52), 
  3948 ;;		 -> SensorData_sendmsg@qptr(2), ToMainHigh_MQ(54), ToMainLow_MQ(54), main@msgbuffer(11), 
  3949 ;;		 -> main@uc(14), 
  3950 ;; Return value:  Size  Location     Type
  3951 ;;                  2    0[BANK1 ] PTR void 
  3952 ;; Registers used:
  3953 ;;		wreg, fsr1l, fsr1h, fsr2l, fsr2h, status,2, status,0
  3954 ;; Tracked objects:
  3955 ;;		On entry : 0/0
  3956 ;;		On exit  : 0/0
  3957 ;;		Unchanged: 0/0
  3958 ;; Data sizes:     COMRAM   BANK0   BANK1   BANK2   BANK3   BANK4   BANK5   BANK6   BANK7   BANK8   BANK9  BANK10  BANK1
      +1  BANK12  BANK13  BANK14
  3959 ;;      Params:         0       0       6       0       0       0       0       0       0       0       0       0       
      +0       0       0       0
  3960 ;;      Locals:         0       0       4       0       0       0       0       0       0       0       0       0       
      +0       0       0       0
  3961 ;;      Temps:          0       0       0       0       0       0       0       0       0       0       0       0       
      +0       0       0       0
  3962 ;;      Totals:         0       0      10       0       0       0       0       0       0       0       0       0       
      +0       0       0       0
  3963 ;;Total ram usage:       10 bytes
  3964 ;; Hardware stack levels used:    1
  3965 ;; Hardware stack levels required when called:   10
  3966 ;; This function calls:
  3967 ;;		Nothing
  3968 ;; This function is called by:
  3969 ;;		_send_msg
  3970 ;;		_recv_msg
  3971 ;;		_SensorData_sendmsg
  3972 ;; This function uses a non-reentrant model
  3973 ;;
  3974                           
  3975                           	psect	text25
  3976  00133E                     __ptext25:
  3977                           	opt stack 0
  3978  00133E                     _memcpy:
  3979                           	opt stack 17
  3980                           
  3981                           ; BSR set to: 1
  3982                           ;incstack = 0
  3983  00133E  0101               	movlb	1	; () banked
  3984  001340  C1A5  F1AB         	movff	memcpy@s1+1,memcpy@s+1
  3985  001344  0101               	movlb	1	; () banked
  3986  001346  C1A4  F1AA         	movff	memcpy@s1,memcpy@s
  3987  00134A  0101               	movlb	1	; () banked
  3988  00134C  C1A3  F1A9         	movff	memcpy@d1+1,memcpy@d+1
  3989  001350  0101               	movlb	1	; () banked
  3990  001352  C1A2  F1A8         	movff	memcpy@d1,memcpy@d
  3991  001356  D010               	goto	l2903
  3992  001358                     l2897:
  3993                           
  3994                           ; BSR set to: 1
  3995  001358  C1AA  FFD9         	movff	memcpy@s,fsr2l
  3996  00135C  C1AB  FFDA         	movff	memcpy@s+1,fsr2h
  3997  001360  C1A8  FFE1         	movff	memcpy@d,fsr1l
  3998  001364  C1A9  FFE2         	movff	memcpy@d+1,fsr1h
  3999  001368  CFDF FFE7          	movff	indf2,indf1
  4000                           
  4001                           ; BSR set to: 1
  4002  00136C  0101               	movlb	1	; () banked
  4003  00136E  4BAA               	infsnz	memcpy@s& (0+255),f,b
  4004  001370  2BAB               	incf	(memcpy@s+1)& (0+255),f,b
  4005                           
  4006                           ; BSR set to: 1
  4007  001372  0101               	movlb	1	; () banked
  4008  001374  4BA8               	infsnz	memcpy@d& (0+255),f,b
  4009  001376  2BA9               	incf	(memcpy@d+1)& (0+255),f,b
  4010  001378                     l2903:
  4011                           
  4012                           ; BSR set to: 1
  4013  001378  0101               	movlb	1	; () banked
  4014  00137A  07A6               	decf	memcpy@n& (0+255),f,b
  4015  00137C  A0D8               	btfss	status,0,c
  4016  00137E  07A7               	decf	(memcpy@n+1)& (0+255),f,b
  4017  001380  0101               	movlb	1	; () banked
  4018  001382  29A6               	incf	memcpy@n& (0+255),w,b
  4019  001384  B4D8               	btfsc	status,2,c
  4020  001386  29A7               	incf	(memcpy@n+1)& (0+255),w,b
  4021  001388  B4D8               	btfsc	status,2,c
  4022                           
  4023                           ; BSR set to: 1
  4024                           
  4025                           ; BSR set to: 1
  4026                           ;	Return value of _memcpy is never used
  4027  00138A  0012               	return	
  4028  00138C  D7E5               	goto	l2897
  4029  00138E                     __end_of_memcpy:
  4030                           	opt stack 0
  4031                           tblptru	equ	0xFF8
  4032                           prodh	equ	0xFF4
  4033                           prodl	equ	0xFF3
  4034                           intcon	equ	0xFF2
  4035                           intcon2	equ	0xFF1
  4036                           postinc0	equ	0xFEE
  4037                           wreg	equ	0xFE8
  4038                           indf1	equ	0xFE7
  4039                           fsr1h	equ	0xFE2
  4040                           fsr1l	equ	0xFE1
  4041                           indf2	equ	0xFDF
  4042                           postinc2	equ	0xFDE
  4043                           postdec2	equ	0xFDD
  4044                           fsr2h	equ	0xFDA
  4045                           fsr2l	equ	0xFD9
  4046                           status	equ	0xFD8
  4047                           
  4048 ;; *************** function _OpenTimer1 *****************
  4049 ;; Defined at:
  4050 ;;		line 43 in file "C:\Program Files (x86)\Microchip\xc8\v1.33\sources\pic18\plib\Timers\t1open.c"
  4051 ;; Parameters:    Size  Location     Type
  4052 ;;  config          1    wreg     unsigned char 
  4053 ;;  config1         1   50[BANK0 ] unsigned char 
  4054 ;; Auto vars:     Size  Location     Type
  4055 ;;  config          1   52[BANK0 ] unsigned char 
  4056 ;; Return value:  Size  Location     Type
  4057 ;;		None               void
  4058 ;; Registers used:
  4059 ;;		wreg, status,2, status,0
  4060 ;; Tracked objects:
  4061 ;;		On entry : 0/0
  4062 ;;		On exit  : 0/0
  4063 ;;		Unchanged: 0/0
  4064 ;; Data sizes:     COMRAM   BANK0   BANK1   BANK2   BANK3   BANK4   BANK5   BANK6   BANK7   BANK8   BANK9  BANK10  BANK1
      +1  BANK12  BANK13  BANK14
  4065 ;;      Params:         0       1       0       0       0       0       0       0       0       0       0       0       
      +0       0       0       0
  4066 ;;      Locals:         0       1       0       0       0       0       0       0       0       0       0       0       
      +0       0       0       0
  4067 ;;      Temps:          0       1       0       0       0       0       0       0       0       0       0       0       
      +0       0       0       0
  4068 ;;      Totals:         0       3       0       0       0       0       0       0       0       0       0       0       
      +0       0       0       0
  4069 ;;Total ram usage:        3 bytes
  4070 ;; Hardware stack levels used:    1
  4071 ;; Hardware stack levels required when called:   10
  4072 ;; This function calls:
  4073 ;;		Nothing
  4074 ;; This function is called by:
  4075 ;;		_main
  4076 ;; This function uses a non-reentrant model
  4077 ;;
  4078                           
  4079                           	psect	text26
  4080  001520                     __ptext26:
  4081                           	opt stack 0
  4082  001520                     _OpenTimer1:
  4083                           	opt stack 20
  4084                           
  4085                           ; BSR set to: 1
  4086                           ;incstack = 0
  4087                           ;OpenTimer1@config stored from wreg
  4088  001520  0100               	movlb	0	; () banked
  4089  001522  6FCB               	movwf	OpenTimer1@config& (0+255),b
  4090                           
  4091                           ; BSR set to: 0
  4092  001524  0100               	movlb	0	; () banked
  4093  001526  51C9               	movf	OpenTimer1@config1& (0+255),w,b
  4094  001528  0BF3               	andlw	243
  4095  00152A  6E9A               	movwf	3994,c	;volatile
  4096  00152C  C0CB  F0CA         	movff	OpenTimer1@config,??_OpenTimer1
  4097  001530  0E7F               	movlw	127
  4098  001532  0100               	movlb	0	; () banked
  4099  001534  17CA               	andwf	??_OpenTimer1& (0+255),f,b
  4100  001536  0100               	movlb	0	; () banked
  4101  001538  90D8               	bcf	status,0,c
  4102  00153A  35CA               	rlcf	??_OpenTimer1& (0+255),w,b
  4103  00153C  6ECD               	movwf	4045,c	;volatile
  4104                           
  4105                           ; BSR set to: 0
  4106  00153E  0E00               	movlw	0
  4107  001540  6ECF               	movwf	4047,c	;volatile
  4108                           
  4109                           ; BSR set to: 0
  4110  001542  0E00               	movlw	0
  4111  001544  6ECE               	movwf	4046,c	;volatile
  4112                           
  4113                           ; BSR set to: 0
  4114  001546  909E               	bcf	3998,0,c	;volatile
  4115                           
  4116                           ; BSR set to: 0
  4117  001548  0100               	movlb	0	; () banked
  4118  00154A  AFCB               	btfss	OpenTimer1@config& (0+255),7,b
  4119  00154C  D002               	goto	l468
  4120                           
  4121                           ; BSR set to: 0
  4122  00154E  809D               	bsf	3997,0,c	;volatile
  4123  001550  D001               	goto	l469
  4124  001552                     l468:
  4125                           
  4126                           ; BSR set to: 0
  4127  001552  909D               	bcf	3997,0,c	;volatile
  4128  001554                     l469:
  4129                           
  4130                           ; BSR set to: 0
  4131  001554  BE9A               	btfsc	3994,7,c	;volatile
  4132                           
  4133                           ; BSR set to: 0
  4134  001556  869A               	bsf	3994,3,c	;volatile
  4135                           
  4136                           ; BSR set to: 0
  4137  001558  80CD               	bsf	4045,0,c	;volatile
  4138                           
  4139                           ; BSR set to: 0
  4140  00155A  0012               	return	
  4141  00155C                     __end_of_OpenTimer1:
  4142                           	opt stack 0
  4143                           tblptru	equ	0xFF8
  4144                           prodh	equ	0xFF4
  4145                           prodl	equ	0xFF3
  4146                           intcon	equ	0xFF2
  4147                           intcon2	equ	0xFF1
  4148                           postinc0	equ	0xFEE
  4149                           wreg	equ	0xFE8
  4150                           indf1	equ	0xFE7
  4151                           fsr1h	equ	0xFE2
  4152                           fsr1l	equ	0xFE1
  4153                           indf2	equ	0xFDF
  4154                           postinc2	equ	0xFDE
  4155                           postdec2	equ	0xFDD
  4156                           fsr2h	equ	0xFDA
  4157                           fsr2l	equ	0xFD9
  4158                           status	equ	0xFD8
  4159                           
  4160 ;; *************** function _OpenTimer0 *****************
  4161 ;; Defined at:
  4162 ;;		line 18 in file "C:\Program Files (x86)\Microchip\xc8\v1.33\sources\pic18\plib\Timers\t0open.c"
  4163 ;; Parameters:    Size  Location     Type
  4164 ;;  config          1    wreg     unsigned char 
  4165 ;; Auto vars:     Size  Location     Type
  4166 ;;  config          1   50[BANK0 ] unsigned char 
  4167 ;; Return value:  Size  Location     Type
  4168 ;;		None               void
  4169 ;; Registers used:
  4170 ;;		wreg, status,2, status,0
  4171 ;; Tracked objects:
  4172 ;;		On entry : 0/0
  4173 ;;		On exit  : 0/0
  4174 ;;		Unchanged: 0/0
  4175 ;; Data sizes:     COMRAM   BANK0   BANK1   BANK2   BANK3   BANK4   BANK5   BANK6   BANK7   BANK8   BANK9  BANK10  BANK1
      +1  BANK12  BANK13  BANK14
  4176 ;;      Params:         0       0       0       0       0       0       0       0       0       0       0       0       
      +0       0       0       0
  4177 ;;      Locals:         0       1       0       0       0       0       0       0       0       0       0       0       
      +0       0       0       0
  4178 ;;      Temps:          0       0       0       0       0       0       0       0       0       0       0       0       
      +0       0       0       0
  4179 ;;      Totals:         0       1       0       0       0       0       0       0       0       0       0       0       
      +0       0       0       0
  4180 ;;Total ram usage:        1 bytes
  4181 ;; Hardware stack levels used:    1
  4182 ;; Hardware stack levels required when called:   10
  4183 ;; This function calls:
  4184 ;;		Nothing
  4185 ;; This function is called by:
  4186 ;;		_main
  4187 ;; This function uses a non-reentrant model
  4188 ;;
  4189                           
  4190                           	psect	text27
  4191  0017C6                     __ptext27:
  4192                           	opt stack 0
  4193  0017C6                     _OpenTimer0:
  4194                           	opt stack 20
  4195                           
  4196                           ; BSR set to: 0
  4197                           ;incstack = 0
  4198                           ;OpenTimer0@config stored from wreg
  4199  0017C6  0100               	movlb	0	; () banked
  4200  0017C8  6FC9               	movwf	OpenTimer0@config& (0+255),b
  4201                           
  4202                           ; BSR set to: 0
  4203  0017CA  0100               	movlb	0	; () banked
  4204  0017CC  51C9               	movf	OpenTimer0@config& (0+255),w,b
  4205  0017CE  0B7F               	andlw	127
  4206  0017D0  6ED5               	movwf	4053,c	;volatile
  4207                           
  4208                           ; BSR set to: 0
  4209  0017D2  0E00               	movlw	0
  4210  0017D4  6ED7               	movwf	4055,c	;volatile
  4211                           
  4212                           ; BSR set to: 0
  4213  0017D6  0E00               	movlw	0
  4214  0017D8  6ED6               	movwf	4054,c	;volatile
  4215                           
  4216                           ; BSR set to: 0
  4217  0017DA  94F2               	bcf	intcon,2,c	;volatile
  4218                           
  4219                           ; BSR set to: 0
  4220  0017DC  0100               	movlb	0	; () banked
  4221  0017DE  AFC9               	btfss	OpenTimer0@config& (0+255),7,b
  4222  0017E0  D002               	goto	l440
  4223                           
  4224                           ; BSR set to: 0
  4225  0017E2  8AF2               	bsf	intcon,5,c	;volatile
  4226  0017E4  D001               	goto	l441
  4227  0017E6                     l440:
  4228                           
  4229                           ; BSR set to: 0
  4230  0017E6  9AF2               	bcf	intcon,5,c	;volatile
  4231  0017E8                     l441:
  4232                           
  4233                           ; BSR set to: 0
  4234  0017E8  8ED5               	bsf	4053,7,c	;volatile
  4235                           
  4236                           ; BSR set to: 0
  4237  0017EA  0012               	return	
  4238  0017EC                     __end_of_OpenTimer0:
  4239                           	opt stack 0
  4240                           tblptru	equ	0xFF8
  4241                           prodh	equ	0xFF4
  4242                           prodl	equ	0xFF3
  4243                           intcon	equ	0xFF2
  4244                           intcon2	equ	0xFF1
  4245                           postinc0	equ	0xFEE
  4246                           wreg	equ	0xFE8
  4247                           indf1	equ	0xFE7
  4248                           fsr1h	equ	0xFE2
  4249                           fsr1l	equ	0xFE1
  4250                           indf2	equ	0xFDF
  4251                           postinc2	equ	0xFDE
  4252                           postdec2	equ	0xFDD
  4253                           fsr2h	equ	0xFDA
  4254                           fsr2l	equ	0xFD9
  4255                           status	equ	0xFD8
  4256                           
  4257 ;; *************** function _Open1USART *****************
  4258 ;; Defined at:
  4259 ;;		line 124 in file "C:\Program Files (x86)\Microchip\xc8\v1.33\sources\pic18\plib\USART\u1open.c"
  4260 ;; Parameters:    Size  Location     Type
  4261 ;;  config          1    wreg     unsigned char 
  4262 ;;  spbrg           2   50[BANK0 ] unsigned int 
  4263 ;; Auto vars:     Size  Location     Type
  4264 ;;  config          1   52[BANK0 ] unsigned char 
  4265 ;; Return value:  Size  Location     Type
  4266 ;;		None               void
  4267 ;; Registers used:
  4268 ;;		wreg, status,2
  4269 ;; Tracked objects:
  4270 ;;		On entry : 0/0
  4271 ;;		On exit  : 0/0
  4272 ;;		Unchanged: 0/0
  4273 ;; Data sizes:     COMRAM   BANK0   BANK1   BANK2   BANK3   BANK4   BANK5   BANK6   BANK7   BANK8   BANK9  BANK10  BANK1
      +1  BANK12  BANK13  BANK14
  4274 ;;      Params:         0       2       0       0       0       0       0       0       0       0       0       0       
      +0       0       0       0
  4275 ;;      Locals:         0       1       0       0       0       0       0       0       0       0       0       0       
      +0       0       0       0
  4276 ;;      Temps:          0       0       3       0       0       0       0       0       0       0       0       0       
      +0       0       0       0
  4277 ;;      Totals:         0       3       3       0       0       0       0       0       0       0       0       0       
      +0       0       0       0
  4278 ;;Total ram usage:        6 bytes
  4279 ;; Hardware stack levels used:    1
  4280 ;; Hardware stack levels required when called:   10
  4281 ;; This function calls:
  4282 ;;		Nothing
  4283 ;; This function is called by:
  4284 ;;		_main
  4285 ;; This function uses a non-reentrant model
  4286 ;;
  4287                           
  4288                           	psect	text28
  4289  001018                     __ptext28:
  4290                           	opt stack 0
  4291  001018                     _Open1USART:
  4292                           	opt stack 20
  4293                           
  4294                           ; BSR set to: 0
  4295                           ;incstack = 0
  4296                           ;Open1USART@config stored from wreg
  4297  001018  0100               	movlb	0	; () banked
  4298  00101A  6FCB               	movwf	Open1USART@config& (0+255),b
  4299                           
  4300                           ; BSR set to: 0
  4301  00101C  0E00               	movlw	0
  4302  00101E  6EAD               	movwf	4013,c	;volatile
  4303  001020  0E00               	movlw	0
  4304  001022  6EAC               	movwf	4012,c	;volatile
  4305                           
  4306                           ; BSR set to: 0
  4307  001024  0100               	movlb	0	; () banked
  4308  001026  B1CB               	btfsc	Open1USART@config& (0+255),0,b
  4309                           
  4310                           ; BSR set to: 0
  4311  001028  88AD               	bsf	4013,4,c	;volatile
  4312                           
  4313                           ; BSR set to: 0
  4314                           
  4315                           ; BSR set to: 0
  4316  00102A  0100               	movlb	0	; () banked
  4317  00102C  A3CB               	btfss	Open1USART@config& (0+255),1,b
  4318  00102E  D002               	goto	l3433
  4319                           
  4320                           ; BSR set to: 0
  4321  001030  8CAD               	bsf	4013,6,c	;volatile
  4322  001032  8CAC               	bsf	4012,6,c	;volatile
  4323  001034                     l3433:
  4324                           
  4325                           ; BSR set to: 0
  4326  001034  0100               	movlb	0	; () banked
  4327  001036  B5CB               	btfsc	Open1USART@config& (0+255),2,b
  4328                           
  4329                           ; BSR set to: 0
  4330  001038  8EAD               	bsf	4013,7,c	;volatile
  4331                           
  4332                           ; BSR set to: 0
  4333                           
  4334                           ; BSR set to: 0
  4335  00103A  0100               	movlb	0	; () banked
  4336  00103C  A7CB               	btfss	Open1USART@config& (0+255),3,b
  4337  00103E  D002               	goto	l507
  4338                           
  4339                           ; BSR set to: 0
  4340  001040  88AC               	bsf	4012,4,c	;volatile
  4341  001042  D001               	goto	l3441
  4342  001044                     l507:
  4343                           
  4344                           ; BSR set to: 0
  4345  001044  8AAC               	bsf	4012,5,c	;volatile
  4346  001046                     l3441:
  4347                           
  4348                           ; BSR set to: 0
  4349  001046  0100               	movlb	0	; () banked
  4350  001048  B9CB               	btfsc	Open1USART@config& (0+255),4,b
  4351                           
  4352                           ; BSR set to: 0
  4353  00104A  84AD               	bsf	4013,2,c	;volatile
  4354                           
  4355                           ; BSR set to: 0
  4356                           
  4357                           ; BSR set to: 0
  4358  00104C  0100               	movlb	0	; () banked
  4359  00104E  BBCB               	btfsc	Open1USART@config& (0+255),5,b
  4360                           
  4361                           ; BSR set to: 0
  4362  001050  86AC               	bsf	4012,3,c	;volatile
  4363                           
  4364                           ; BSR set to: 0
  4365                           
  4366                           ; BSR set to: 0
  4367  001052  0100               	movlb	0	; () banked
  4368  001054  ADCB               	btfss	Open1USART@config& (0+255),6,b
  4369  001056  D002               	goto	l511
  4370                           
  4371                           ; BSR set to: 0
  4372  001058  8A9D               	bsf	3997,5,c	;volatile
  4373  00105A  D001               	goto	l3453
  4374  00105C                     l511:
  4375                           
  4376                           ; BSR set to: 0
  4377  00105C  9A9D               	bcf	3997,5,c	;volatile
  4378  00105E                     l3453:
  4379                           
  4380                           ; BSR set to: 0
  4381  00105E  0100               	movlb	0	; () banked
  4382  001060  AFCB               	btfss	Open1USART@config& (0+255),7,b
  4383  001062  D002               	goto	l513
  4384                           
  4385                           ; BSR set to: 0
  4386  001064  889D               	bsf	3997,4,c	;volatile
  4387  001066  D001               	goto	l514
  4388  001068                     l513:
  4389                           
  4390                           ; BSR set to: 0
  4391  001068  989D               	bcf	3997,4,c	;volatile
  4392  00106A                     l514:
  4393                           
  4394                           ; BSR set to: 0
  4395  00106A  C0C9  FFB0         	movff	Open1USART@spbrg,4016	;volatile
  4396                           
  4397                           ; BSR set to: 0
  4398  00106E  0100               	movlb	0	; () banked
  4399  001070  C0CA  F1A2         	movff	Open1USART@spbrg+1,??_Open1USART
  4400  001074  C1A2  F1A3         	movff	??_Open1USART,??_Open1USART+1
  4401  001078  0101               	movlb	1	; () banked
  4402  00107A  6BA4               	clrf	(??_Open1USART+2)& (0+255),b
  4403  00107C  0101               	movlb	1	; () banked
  4404  00107E  51A3               	movf	(??_Open1USART+1)& (0+255),w,b
  4405  001080  6E7F               	movwf	3967,c	;volatile
  4406                           
  4407                           ; BSR set to: 1
  4408  001082  8AAD               	bsf	4013,5,c	;volatile
  4409                           
  4410                           ; BSR set to: 1
  4411  001084  8EAC               	bsf	4012,7,c	;volatile
  4412                           
  4413                           ; BSR set to: 1
  4414  001086  0012               	return	
  4415  001088                     __end_of_Open1USART:
  4416                           	opt stack 0
  4417                           tblptru	equ	0xFF8
  4418                           prodh	equ	0xFF4
  4419                           prodl	equ	0xFF3
  4420                           intcon	equ	0xFF2
  4421                           intcon2	equ	0xFF1
  4422                           postinc0	equ	0xFEE
  4423                           wreg	equ	0xFE8
  4424                           indf1	equ	0xFE7
  4425                           fsr1h	equ	0xFE2
  4426                           fsr1l	equ	0xFE1
  4427                           indf2	equ	0xFDF
  4428                           postinc2	equ	0xFDE
  4429                           postdec2	equ	0xFDD
  4430                           fsr2h	equ	0xFDA
  4431                           fsr2l	equ	0xFD9
  4432                           status	equ	0xFD8
  4433                           
  4434 ;; *************** function _ADC_Init *****************
  4435 ;; Defined at:
  4436 ;;		line 7 in file "../src/ADC.c"
  4437 ;; Parameters:    Size  Location     Type
  4438 ;;		None
  4439 ;; Auto vars:     Size  Location     Type
  4440 ;;		None
  4441 ;; Return value:  Size  Location     Type
  4442 ;;		None               void
  4443 ;; Registers used:
  4444 ;;		wreg, status,2
  4445 ;; Tracked objects:
  4446 ;;		On entry : 0/0
  4447 ;;		On exit  : 0/0
  4448 ;;		Unchanged: 0/0
  4449 ;; Data sizes:     COMRAM   BANK0   BANK1   BANK2   BANK3   BANK4   BANK5   BANK6   BANK7   BANK8   BANK9  BANK10  BANK1
      +1  BANK12  BANK13  BANK14
  4450 ;;      Params:         0       0       0       0       0       0       0       0       0       0       0       0       
      +0       0       0       0
  4451 ;;      Locals:         0       0       0       0       0       0       0       0       0       0       0       0       
      +0       0       0       0
  4452 ;;      Temps:          0       0       0       0       0       0       0       0       0       0       0       0       
      +0       0       0       0
  4453 ;;      Totals:         0       0       0       0       0       0       0       0       0       0       0       0       
      +0       0       0       0
  4454 ;;Total ram usage:        0 bytes
  4455 ;; Hardware stack levels used:    1
  4456 ;; Hardware stack levels required when called:   10
  4457 ;; This function calls:
  4458 ;;		Nothing
  4459 ;; This function is called by:
  4460 ;;		_main
  4461 ;; This function uses a non-reentrant model
  4462 ;;
  4463                           
  4464                           	psect	text29
  4465  00174C                     __ptext29:
  4466                           	opt stack 0
  4467  00174C                     _ADC_Init:
  4468                           	opt stack 20
  4469                           
  4470                           ;ADC.c: 8: TRISAbits.TRISA0 = 1;
  4471                           
  4472                           ; BSR set to: 1
  4473                           ;incstack = 0
  4474  00174C  8092               	bsf	3986,0,c	;volatile
  4475                           
  4476                           ;ADC.c: 10: ANCON0bits.PCFG0 = 0;
  4477  00174E  010F               	movlb	15	; () banked
  4478  001750  9148               	bcf	72,0,b	;volatile
  4479                           
  4480                           ;ADC.c: 12: ADCON0bits.VCFG0 = 0;
  4481  001752  9CC2               	bcf	4034,6,c	;volatile
  4482                           
  4483                           ;ADC.c: 13: ADCON0bits.VCFG1 = 0;
  4484  001754  9EC2               	bcf	4034,7,c	;volatile
  4485                           
  4486                           ; BSR set to: 15
  4487                           ;ADC.c: 14: ADCON0bits.CHS = 3;
  4488  001756  50C2               	movf	4034,w,c	;volatile
  4489  001758  0BC3               	andlw	-61
  4490  00175A  090C               	iorlw	12
  4491  00175C  6EC2               	movwf	4034,c	;volatile
  4492                           
  4493                           ; BSR set to: 15
  4494                           ;ADC.c: 16: ADCON1bits.ADFM = 1;
  4495  00175E  8EC1               	bsf	4033,7,c	;volatile
  4496                           
  4497                           ; BSR set to: 15
  4498                           ;ADC.c: 17: ADCON1bits.ADCAL = 0;
  4499  001760  9CC1               	bcf	4033,6,c	;volatile
  4500                           
  4501                           ;ADC.c: 18: ADCON1bits.ACQT = 1;
  4502  001762  50C1               	movf	4033,w,c	;volatile
  4503  001764  0BC7               	andlw	-57
  4504  001766  0908               	iorlw	8
  4505  001768  6EC1               	movwf	4033,c	;volatile
  4506                           
  4507                           ;ADC.c: 19: ADCON1bits.ADCS = 6;
  4508  00176A  50C1               	movf	4033,w,c	;volatile
  4509  00176C  0BF8               	andlw	-8
  4510  00176E  0906               	iorlw	6
  4511  001770  6EC1               	movwf	4033,c	;volatile
  4512                           
  4513                           ; BSR set to: 15
  4514                           ;ADC.c: 21: ADCON0bits.ADON = 1;
  4515  001772  80C2               	bsf	4034,0,c	;volatile
  4516                           
  4517                           ; BSR set to: 15
  4518  001774  0012               	return	
  4519  001776                     __end_of_ADC_Init:
  4520                           	opt stack 0
  4521                           tblptru	equ	0xFF8
  4522                           prodh	equ	0xFF4
  4523                           prodl	equ	0xFF3
  4524                           intcon	equ	0xFF2
  4525                           intcon2	equ	0xFF1
  4526                           postinc0	equ	0xFEE
  4527                           wreg	equ	0xFE8
  4528                           indf1	equ	0xFE7
  4529                           fsr1h	equ	0xFE2
  4530                           fsr1l	equ	0xFE1
  4531                           indf2	equ	0xFDF
  4532                           postinc2	equ	0xFDE
  4533                           postdec2	equ	0xFDD
  4534                           fsr2h	equ	0xFDA
  4535                           fsr2l	equ	0xFD9
  4536                           status	equ	0xFD8
  4537                           
  4538 ;; *************** function _InterruptHandlerLow *****************
  4539 ;; Defined at:
  4540 ;;		line 125 in file "../src/interrupts.c"
  4541 ;; Parameters:    Size  Location     Type
  4542 ;;		None
  4543 ;; Auto vars:     Size  Location     Type
  4544 ;;		None
  4545 ;; Return value:  Size  Location     Type
  4546 ;;		None               void
  4547 ;; Registers used:
  4548 ;;		wreg, fsr1l, fsr1h, fsr2l, fsr2h, status,2, status,0, prodl, prodh, cstack
  4549 ;; Tracked objects:
  4550 ;;		On entry : 0/0
  4551 ;;		On exit  : 0/0
  4552 ;;		Unchanged: 0/0
  4553 ;; Data sizes:     COMRAM   BANK0   BANK1   BANK2   BANK3   BANK4   BANK5   BANK6   BANK7   BANK8   BANK9  BANK10  BANK1
      +1  BANK12  BANK13  BANK14
  4554 ;;      Params:         0       0       0       0       0       0       0       0       0       0       0       0       
      +0       0       0       0
  4555 ;;      Locals:         0       0       0       0       0       0       0       0       0       0       0       0       
      +0       0       0       0
  4556 ;;      Temps:         17       0       0       0       0       0       0       0       0       0       0       0       
      +0       0       0       0
  4557 ;;      Totals:        17       0       0       0       0       0       0       0       0       0       0       0       
      +0       0       0       0
  4558 ;;Total ram usage:       17 bytes
  4559 ;; Hardware stack levels used:    1
  4560 ;; Hardware stack levels required when called:    9
  4561 ;; This function calls:
  4562 ;;		_timer1_int_handler
  4563 ;;		_uart_recv_int_handler
  4564 ;;		_uart_trans_int_handler
  4565 ;; This function is called by:
  4566 ;;		Interrupt level 1
  4567 ;; This function uses a non-reentrant model
  4568 ;;
  4569                           
  4570                           	psect	intcodelo
  4571  000018                     __pintcodelo:
  4572                           	opt stack 0
  4573  000018                     _InterruptHandlerLow:
  4574                           	opt stack 17
  4575                           
  4576                           ; BSR set to: 15
  4577                           ;incstack = 0
  4578  000018  CFD8 F020          	movff	status,??_InterruptHandlerLow
  4579  00001C  CFE8 F021          	movff	wreg,??_InterruptHandlerLow+1
  4580  000020  CFE0 F022          	movff	bsr,??_InterruptHandlerLow+2
  4581  000024  CFFA F023          	movff	pclath,??_InterruptHandlerLow+3
  4582  000028  CFFB F024          	movff	pclatu,??_InterruptHandlerLow+4
  4583  00002C  CFE9 F025          	movff	fsr0l,??_InterruptHandlerLow+5
  4584  000030  CFEA F026          	movff	fsr0h,??_InterruptHandlerLow+6
  4585  000034  CFE1 F027          	movff	fsr1l,??_InterruptHandlerLow+7
  4586  000038  CFE2 F028          	movff	fsr1h,??_InterruptHandlerLow+8
  4587  00003C  CFD9 F029          	movff	fsr2l,??_InterruptHandlerLow+9
  4588  000040  CFDA F02A          	movff	fsr2h,??_InterruptHandlerLow+10
  4589  000044  CFF3 F02B          	movff	prodl,??_InterruptHandlerLow+11
  4590  000048  CFF4 F02C          	movff	prodh,??_InterruptHandlerLow+12
  4591  00004C  CFF6 F02D          	movff	tblptrl,??_InterruptHandlerLow+13
  4592  000050  CFF7 F02E          	movff	tblptrh,??_InterruptHandlerLow+14
  4593  000054  CFF8 F02F          	movff	tblptru,??_InterruptHandlerLow+15
  4594  000058  CFF5 F030          	movff	tablat,??_InterruptHandlerLow+16
  4595                           
  4596                           ;interrupts.c: 127: if (PIR1bits.TMR1IF) {
  4597  00005C  A09E               	btfss	3998,0,c	;volatile
  4598  00005E  D003               	goto	i1l3539
  4599                           
  4600                           ;interrupts.c: 128: PIR1bits.TMR1IF = 0;
  4601  000060  909E               	bcf	3998,0,c	;volatile
  4602                           
  4603                           ;interrupts.c: 129: timer1_int_handler();
  4604  000062  ECF6  F00B         	call	_timer1_int_handler	;wreg free
  4605  000066                     i1l3539:
  4606                           
  4607                           ;interrupts.c: 130: }
  4608                           ;interrupts.c: 132: if (PIR1bits.RCIF) {
  4609  000066  AA9E               	btfss	3998,5,c	;volatile
  4610  000068  D003               	goto	i1l3545
  4611                           
  4612                           ;interrupts.c: 133: PIR1bits.RCIF = 0;
  4613  00006A  9A9E               	bcf	3998,5,c	;volatile
  4614                           
  4615                           ;interrupts.c: 134: uart_recv_int_handler();
  4616  00006C  ECAE  F00A         	call	_uart_recv_int_handler	;wreg free
  4617  000070                     i1l3545:
  4618                           
  4619                           ;interrupts.c: 135: }
  4620                           ;interrupts.c: 137: if (PIR1bits.TXIF && PIE1bits.TX1IE) {
  4621  000070  B89E               	btfsc	3998,4,c	;volatile
  4622  000072  A89D               	btfss	3997,4,c	;volatile
  4623  000074  D002               	goto	i1l52
  4624                           
  4625                           ;interrupts.c: 138: uart_trans_int_handler();
  4626  000076  EC7F  F007         	call	_uart_trans_int_handler	;wreg free
  4627  00007A                     i1l52:
  4628  00007A  C030  FFF5         	movff	??_InterruptHandlerLow+16,tablat
  4629  00007E  C02F  FFF8         	movff	??_InterruptHandlerLow+15,tblptru
  4630  000082  C02E  FFF7         	movff	??_InterruptHandlerLow+14,tblptrh
  4631  000086  C02D  FFF6         	movff	??_InterruptHandlerLow+13,tblptrl
  4632  00008A  C02C  FFF4         	movff	??_InterruptHandlerLow+12,prodh
  4633  00008E  C02B  FFF3         	movff	??_InterruptHandlerLow+11,prodl
  4634  000092  C02A  FFDA         	movff	??_InterruptHandlerLow+10,fsr2h
  4635  000096  C029  FFD9         	movff	??_InterruptHandlerLow+9,fsr2l
  4636  00009A  C028  FFE2         	movff	??_InterruptHandlerLow+8,fsr1h
  4637  00009E  C027  FFE1         	movff	??_InterruptHandlerLow+7,fsr1l
  4638  0000A2  C026  FFEA         	movff	??_InterruptHandlerLow+6,fsr0h
  4639  0000A6  C025  FFE9         	movff	??_InterruptHandlerLow+5,fsr0l
  4640  0000AA  C024  FFFB         	movff	??_InterruptHandlerLow+4,pclatu
  4641  0000AE  C023  FFFA         	movff	??_InterruptHandlerLow+3,pclath
  4642  0000B2  C022  FFE0         	movff	??_InterruptHandlerLow+2,bsr
  4643  0000B6  C021  FFE8         	movff	??_InterruptHandlerLow+1,wreg
  4644  0000BA  C020  FFD8         	movff	??_InterruptHandlerLow,status
  4645  0000BE  0010               	retfie	
  4646  0000C0                     __end_of_InterruptHandlerLow:
  4647                           	opt stack 0
  4648                           pclatu	equ	0xFFB
  4649                           pclath	equ	0xFFA
  4650                           tblptru	equ	0xFF8
  4651                           tblptrh	equ	0xFF7
  4652                           tblptrl	equ	0xFF6
  4653                           tablat	equ	0xFF5
  4654                           prodh	equ	0xFF4
  4655                           prodl	equ	0xFF3
  4656                           intcon	equ	0xFF2
  4657                           intcon2	equ	0xFF1
  4658                           postinc0	equ	0xFEE
  4659                           fsr0h	equ	0xFEA
  4660                           fsr0l	equ	0xFE9
  4661                           wreg	equ	0xFE8
  4662                           indf1	equ	0xFE7
  4663                           fsr1h	equ	0xFE2
  4664                           fsr1l	equ	0xFE1
  4665                           bsr	equ	0xFE0
  4666                           indf2	equ	0xFDF
  4667                           postinc2	equ	0xFDE
  4668                           postdec2	equ	0xFDD
  4669                           fsr2h	equ	0xFDA
  4670                           fsr2l	equ	0xFD9
  4671                           status	equ	0xFD8
  4672                           
  4673 ;; *************** function _uart_trans_int_handler *****************
  4674 ;; Defined at:
  4675 ;;		line 27 in file "../src/my_uart.c"
  4676 ;; Parameters:    Size  Location     Type
  4677 ;;		None
  4678 ;; Auto vars:     Size  Location     Type
  4679 ;;		None
  4680 ;; Return value:  Size  Location     Type
  4681 ;;		None               void
  4682 ;; Registers used:
  4683 ;;		wreg, fsr1l, fsr1h, fsr2l, fsr2h, status,2, status,0, prodl, prodh, cstack
  4684 ;; Tracked objects:
  4685 ;;		On entry : 0/0
  4686 ;;		On exit  : 0/0
  4687 ;;		Unchanged: 0/0
  4688 ;; Data sizes:     COMRAM   BANK0   BANK1   BANK2   BANK3   BANK4   BANK5   BANK6   BANK7   BANK8   BANK9  BANK10  BANK1
      +1  BANK12  BANK13  BANK14
  4689 ;;      Params:         0       0       0       0       0       0       0       0       0       0       0       0       
      +0       0       0       0
  4690 ;;      Locals:         0       0       0       0       0       0       0       0       0       0       0       0       
      +0       0       0       0
  4691 ;;      Temps:          2       0       0       0       0       0       0       0       0       0       0       0       
      +0       0       0       0
  4692 ;;      Totals:         2       0       0       0       0       0       0       0       0       0       0       0       
      +0       0       0       0
  4693 ;;Total ram usage:        2 bytes
  4694 ;; Hardware stack levels used:    1
  4695 ;; Hardware stack levels required when called:    8
  4696 ;; This function calls:
  4697 ;;		_FromMainLow_recvmsg
  4698 ;; This function is called by:
  4699 ;;		_InterruptHandlerLow
  4700 ;; This function uses a non-reentrant model
  4701 ;;
  4702                           
  4703                           	psect	text31
  4704  000EFE                     __ptext31:
  4705                           	opt stack 0
  4706  000EFE                     _uart_trans_int_handler:
  4707                           	opt stack 17
  4708                           
  4709                           ;my_uart.c: 28: FromMainLow_recvmsg(uc_ptr->outbuflen, 33, (void *) uc_ptr->outbuffer);
  4710                           
  4711                           ;incstack = 0
  4712  000EFE  0E00               	movlw	0
  4713  000F00  6E1A               	movwf	FromMainLow_recvmsg@msgtype+1,c
  4714  000F02  0E21               	movlw	33
  4715  000F04  6E19               	movwf	FromMainLow_recvmsg@msgtype,c
  4716  000F06  0E06               	movlw	6
  4717  000F08  2431               	addwf	_uc_ptr,w,c
  4718  000F0A  6E1B               	movwf	FromMainLow_recvmsg@data,c
  4719  000F0C  0E00               	movlw	0
  4720  000F0E  2032               	addwfc	_uc_ptr+1,w,c
  4721  000F10  6E1C               	movwf	FromMainLow_recvmsg@data+1,c
  4722  000F12  EE20 F00A          	lfsr	2,10
  4723  000F16  5031               	movf	_uc_ptr,w,c
  4724  000F18  26D9               	addwf	fsr2l,f,c
  4725  000F1A  5032               	movf	_uc_ptr+1,w,c
  4726  000F1C  22DA               	addwfc	fsr2h,f,c
  4727  000F1E  50DF               	movf	indf2,w,c
  4728  000F20  ECCF  F00B         	call	_FromMainLow_recvmsg
  4729                           
  4730                           ;my_uart.c: 29: if (TXSTAbits.TRMT == 1) {
  4731  000F24  A2AD               	btfss	4013,1,c	;volatile
  4732  000F26  0012               	return	
  4733                           
  4734                           ;my_uart.c: 30: if (uc_ptr->outbufind < uc_ptr->outbuflen) {
  4735  000F28  EE20 F00B          	lfsr	2,11
  4736  000F2C  5031               	movf	_uc_ptr,w,c
  4737  000F2E  26D9               	addwf	fsr2l,f,c
  4738  000F30  5032               	movf	_uc_ptr+1,w,c
  4739  000F32  22DA               	addwfc	fsr2h,f,c
  4740  000F34  50DF               	movf	indf2,w,c
  4741  000F36  6E1E               	movwf	??_uart_trans_int_handler& (0+255),c
  4742  000F38  EE20 F00A          	lfsr	2,10
  4743  000F3C  5031               	movf	_uc_ptr,w,c
  4744  000F3E  26D9               	addwf	fsr2l,f,c
  4745  000F40  5032               	movf	_uc_ptr+1,w,c
  4746  000F42  22DA               	addwfc	fsr2h,f,c
  4747  000F44  50DF               	movf	indf2,w,c
  4748  000F46  5C1E               	subwf	??_uart_trans_int_handler,w,c
  4749  000F48  B0D8               	btfsc	status,0,c
  4750  000F4A  D01D               	goto	i1l3331
  4751                           
  4752                           ;my_uart.c: 31: uc_ptr->outbufind++;
  4753  000F4C  EE20 F00B          	lfsr	2,11
  4754  000F50  5031               	movf	_uc_ptr,w,c
  4755  000F52  26D9               	addwf	fsr2l,f,c
  4756  000F54  5032               	movf	_uc_ptr+1,w,c
  4757  000F56  22DA               	addwfc	fsr2h,f,c
  4758  000F58  2ADF               	incf	indf2,f,c
  4759                           
  4760                           ;my_uart.c: 32: TXREG = uc_ptr->outbuffer[uc_ptr->outbufind - 1];
  4761  000F5A  EE20 F00B          	lfsr	2,11
  4762  000F5E  5031               	movf	_uc_ptr,w,c
  4763  000F60  26D9               	addwf	fsr2l,f,c
  4764  000F62  5032               	movf	_uc_ptr+1,w,c
  4765  000F64  22DA               	addwfc	fsr2h,f,c
  4766  000F66  50DF               	movf	indf2,w,c
  4767  000F68  6E1E               	movwf	??_uart_trans_int_handler& (0+255),c
  4768  000F6A  6A1F               	clrf	(??_uart_trans_int_handler+1)& (0+255),c
  4769  000F6C  0E05               	movlw	5
  4770  000F6E  261E               	addwf	??_uart_trans_int_handler,f,c
  4771  000F70  0E00               	movlw	0
  4772  000F72  221F               	addwfc	??_uart_trans_int_handler+1,f,c
  4773  000F74  501E               	movf	??_uart_trans_int_handler,w,c
  4774  000F76  2431               	addwf	_uc_ptr,w,c
  4775  000F78  6ED9               	movwf	fsr2l,c
  4776  000F7A  501F               	movf	??_uart_trans_int_handler+1,w,c
  4777  000F7C  2032               	addwfc	_uc_ptr+1,w,c
  4778  000F7E  6EDA               	movwf	fsr2h,c
  4779  000F80  50DF               	movf	indf2,w,c
  4780  000F82  6EAE               	movwf	4014,c	;volatile
  4781                           
  4782                           ;my_uart.c: 33: } else {
  4783  000F84  0012               	return	
  4784  000F86                     i1l3331:
  4785                           
  4786                           ;my_uart.c: 34: uc_ptr->outbuflen = 0;
  4787  000F86  EE20 F00A          	lfsr	2,10
  4788  000F8A  5031               	movf	_uc_ptr,w,c
  4789  000F8C  26D9               	addwf	fsr2l,f,c
  4790  000F8E  5032               	movf	_uc_ptr+1,w,c
  4791  000F90  22DA               	addwfc	fsr2h,f,c
  4792  000F92  0E00               	movlw	0
  4793  000F94  6EDF               	movwf	indf2,c
  4794                           
  4795                           ;my_uart.c: 35: PIE1bits.TXIE = 0;
  4796  000F96  989D               	bcf	3997,4,c	;volatile
  4797  000F98  0012               	return	
  4798  000F9A                     __end_of_uart_trans_int_handler:
  4799                           	opt stack 0
  4800                           pclatu	equ	0xFFB
  4801                           pclath	equ	0xFFA
  4802                           tblptru	equ	0xFF8
  4803                           tblptrh	equ	0xFF7
  4804                           tblptrl	equ	0xFF6
  4805                           tablat	equ	0xFF5
  4806                           prodh	equ	0xFF4
  4807                           prodl	equ	0xFF3
  4808                           intcon	equ	0xFF2
  4809                           intcon2	equ	0xFF1
  4810                           postinc0	equ	0xFEE
  4811                           fsr0h	equ	0xFEA
  4812                           fsr0l	equ	0xFE9
  4813                           wreg	equ	0xFE8
  4814                           indf1	equ	0xFE7
  4815                           fsr1h	equ	0xFE2
  4816                           fsr1l	equ	0xFE1
  4817                           bsr	equ	0xFE0
  4818                           indf2	equ	0xFDF
  4819                           postinc2	equ	0xFDE
  4820                           postdec2	equ	0xFDD
  4821                           fsr2h	equ	0xFDA
  4822                           fsr2l	equ	0xFD9
  4823                           status	equ	0xFD8
  4824                           
  4825 ;; *************** function _FromMainLow_recvmsg *****************
  4826 ;; Defined at:
  4827 ;;		line 223 in file "../src/messages.c"
  4828 ;; Parameters:    Size  Location     Type
  4829 ;;  maxlength       1    wreg     unsigned char 
  4830 ;;  msgtype         2   24[COMRAM] PTR unsigned char 
  4831 ;;		 -> RAM(3775), 
  4832 ;;  data            2   26[COMRAM] PTR void 
  4833 ;;		 -> NULL(0), main@uc(14), 
  4834 ;; Auto vars:     Size  Location     Type
  4835 ;;  maxlength       1   28[COMRAM] unsigned char 
  4836 ;; Return value:  Size  Location     Type
  4837 ;;                  1    wreg      char 
  4838 ;; Registers used:
  4839 ;;		wreg, fsr1l, fsr1h, fsr2l, fsr2h, status,2, status,0, prodl, prodh, cstack
  4840 ;; Tracked objects:
  4841 ;;		On entry : 0/0
  4842 ;;		On exit  : 0/0
  4843 ;;		Unchanged: 0/0
  4844 ;; Data sizes:     COMRAM   BANK0   BANK1   BANK2   BANK3   BANK4   BANK5   BANK6   BANK7   BANK8   BANK9  BANK10  BANK1
      +1  BANK12  BANK13  BANK14
  4845 ;;      Params:         4       0       0       0       0       0       0       0       0       0       0       0       
      +0       0       0       0
  4846 ;;      Locals:         1       0       0       0       0       0       0       0       0       0       0       0       
      +0       0       0       0
  4847 ;;      Temps:          0       0       0       0       0       0       0       0       0       0       0       0       
      +0       0       0       0
  4848 ;;      Totals:         5       0       0       0       0       0       0       0       0       0       0       0       
      +0       0       0       0
  4849 ;;Total ram usage:        5 bytes
  4850 ;; Hardware stack levels used:    1
  4851 ;; Hardware stack levels required when called:    7
  4852 ;; This function calls:
  4853 ;;		i1_recv_msg
  4854 ;; This function is called by:
  4855 ;;		_uart_trans_int_handler
  4856 ;; This function uses a non-reentrant model
  4857 ;;
  4858                           
  4859                           	psect	text32
  4860  00179E                     __ptext32:
  4861                           	opt stack 0
  4862  00179E                     _FromMainLow_recvmsg:
  4863                           	opt stack 17
  4864                           
  4865                           ;incstack = 0
  4866                           ;FromMainLow_recvmsg@maxlength stored from wreg
  4867  00179E  6E1D               	movwf	FromMainLow_recvmsg@maxlength,c
  4868                           
  4869                           ;messages.c: 229: return (recv_msg(&FromMainLow_MQ, maxlength, msgtype, data));
  4870                           ;	Return value of _FromMainLow_recvmsg is never used
  4871  0017A0  0101               	movlb	1	; () banked
  4872  0017A2  0E01               	movlw	high _FromMainLow_MQ
  4873  0017A4  6E0C               	movwf	i1recv_msg@qptr+1,c
  4874  0017A6  0101               	movlb	1	; () banked
  4875  0017A8  0E00               	movlw	low _FromMainLow_MQ
  4876  0017AA  6E0B               	movwf	i1recv_msg@qptr,c
  4877  0017AC  C01D  F00D         	movff	FromMainLow_recvmsg@maxlength,i1recv_msg@maxlength
  4878  0017B0  C01A  F00F         	movff	FromMainLow_recvmsg@msgtype+1,i1recv_msg@msgtype+1
  4879  0017B4  C019  F00E         	movff	FromMainLow_recvmsg@msgtype,i1recv_msg@msgtype
  4880  0017B8  C01C  F011         	movff	FromMainLow_recvmsg@data+1,i1recv_msg@data+1
  4881  0017BC  C01B  F010         	movff	FromMainLow_recvmsg@data,i1recv_msg@data
  4882  0017C0  EC5C  F006         	call	i1_recv_msg	;wreg free
  4883  0017C4  0012               	return	
  4884  0017C6                     __end_of_FromMainLow_recvmsg:
  4885                           	opt stack 0
  4886                           pclatu	equ	0xFFB
  4887                           pclath	equ	0xFFA
  4888                           tblptru	equ	0xFF8
  4889                           tblptrh	equ	0xFF7
  4890                           tblptrl	equ	0xFF6
  4891                           tablat	equ	0xFF5
  4892                           prodh	equ	0xFF4
  4893                           prodl	equ	0xFF3
  4894                           intcon	equ	0xFF2
  4895                           intcon2	equ	0xFF1
  4896                           postinc0	equ	0xFEE
  4897                           fsr0h	equ	0xFEA
  4898                           fsr0l	equ	0xFE9
  4899                           wreg	equ	0xFE8
  4900                           indf1	equ	0xFE7
  4901                           fsr1h	equ	0xFE2
  4902                           fsr1l	equ	0xFE1
  4903                           bsr	equ	0xFE0
  4904                           indf2	equ	0xFDF
  4905                           postinc2	equ	0xFDE
  4906                           postdec2	equ	0xFDD
  4907                           fsr2h	equ	0xFDA
  4908                           fsr2l	equ	0xFD9
  4909                           status	equ	0xFD8
  4910                           
  4911 ;; *************** function i1_recv_msg *****************
  4912 ;; Defined at:
  4913 ;;		line 64 in file "../src/messages.c"
  4914 ;; Parameters:    Size  Location     Type
  4915 ;;  qptr            2   10[COMRAM] PTR struct __msg_queue
  4916 ;;		 -> FromMainHigh_MQ(54), FromMainLow_MQ(54), SensorData_MQ(54), ToMainHigh_MQ(54), 
  4917 ;;		 -> ToMainLow_MQ(54), 
  4918 ;;  maxlength       1   12[COMRAM] unsigned char 
  4919 ;;  msgtype         2   13[COMRAM] PTR unsigned char 
  4920 ;;		 -> RAM(3775), main@msgtype(1), 
  4921 ;;  data            2   15[COMRAM] PTR void 
  4922 ;;		 -> NULL(0), main@msgbuffer(11), main@uc(14), 
  4923 ;; Auto vars:     Size  Location     Type
  4924 ;;  recv_msg        2   22[COMRAM] PTR struct __msg
  4925 ;;		 -> FromMainLow_MQ.queue(52), FromMainHigh_MQ.queue(52), SensorData_MQ.queue(52), ToMainHigh_MQ.queue(52), 
  4926 ;;		 -> ToMainLow_MQ.queue(52), FromMainHigh_MQ(54), FromMainLow_MQ(54), SensorData_MQ(54), 
  4927 ;;		 -> ToMainHigh_MQ(54), ToMainLow_MQ(54), 
  4928 ;;  recv_msg        2   20[COMRAM] unsigned int 
  4929 ;;  recv_msg        1   19[COMRAM] unsigned char 
  4930 ;; Return value:  Size  Location     Type
  4931 ;;                  1    wreg      char 
  4932 ;; Registers used:
  4933 ;;		wreg, fsr1l, fsr1h, fsr2l, fsr2h, status,2, status,0, prodl, prodh, cstack
  4934 ;; Tracked objects:
  4935 ;;		On entry : 0/0
  4936 ;;		On exit  : 0/0
  4937 ;;		Unchanged: 0/0
  4938 ;; Data sizes:     COMRAM   BANK0   BANK1   BANK2   BANK3   BANK4   BANK5   BANK6   BANK7   BANK8   BANK9  BANK10  BANK1
      +1  BANK12  BANK13  BANK14
  4939 ;;      Params:         7       0       0       0       0       0       0       0       0       0       0       0       
      +0       0       0       0
  4940 ;;      Locals:         5       0       0       0       0       0       0       0       0       0       0       0       
      +0       0       0       0
  4941 ;;      Temps:          2       0       0       0       0       0       0       0       0       0       0       0       
      +0       0       0       0
  4942 ;;      Totals:        14       0       0       0       0       0       0       0       0       0       0       0       
      +0       0       0       0
  4943 ;;Total ram usage:       14 bytes
  4944 ;; Hardware stack levels used:    1
  4945 ;; Hardware stack levels required when called:    6
  4946 ;; This function calls:
  4947 ;;		i1_memcpy
  4948 ;; This function is called by:
  4949 ;;		_FromMainLow_recvmsg
  4950 ;; This function uses a non-reentrant model
  4951 ;;
  4952                           
  4953                           	psect	text33
  4954  000CB8                     __ptext33:
  4955                           	opt stack 0
  4956  000CB8                     i1_recv_msg:
  4957                           	opt stack 17
  4958                           
  4959                           ;messages.c: 65: unsigned char slot;
  4960                           ;messages.c: 69: msg *qmsg;
  4961                           ;messages.c: 70: size_t tlength;
  4962                           ;messages.c: 73: slot = qptr->cur_read_ind;
  4963                           
  4964                           ;incstack = 0
  4965  000CB8  EE20 F035          	lfsr	2,53
  4966  000CBC  500B               	movf	i1recv_msg@qptr,w,c
  4967  000CBE  26D9               	addwf	fsr2l,f,c
  4968  000CC0  500C               	movf	i1recv_msg@qptr+1,w,c
  4969  000CC2  22DA               	addwfc	fsr2h,f,c
  4970  000CC4  50DF               	movf	indf2,w,c
  4971  000CC6  6E14               	movwf	i1recv_msg@slot,c
  4972                           
  4973                           ;messages.c: 74: qmsg = &(qptr->queue[slot]);
  4974  000CC8  5014               	movf	i1recv_msg@slot,w,c
  4975  000CCA  0D0D               	mullw	13
  4976  000CCC  50F3               	movf	prodl,w,c
  4977  000CCE  240B               	addwf	i1recv_msg@qptr,w,c
  4978  000CD0  6E17               	movwf	i1recv_msg@qmsg,c
  4979  000CD2  50F4               	movf	prodh,w,c
  4980  000CD4  200C               	addwfc	i1recv_msg@qptr+1,w,c
  4981  000CD6  6E18               	movwf	i1recv_msg@qmsg+1,c
  4982                           
  4983                           ;messages.c: 75: if (qmsg->full == 1) {
  4984  000CD8  0E01               	movlw	1
  4985  000CDA  C017  FFD9         	movff	i1recv_msg@qmsg,fsr2l
  4986  000CDE  C018  FFDA         	movff	i1recv_msg@qmsg+1,fsr2h
  4987  000CE2  62DF               	cpfseq	indf2,c
  4988  000CE4  D050               	goto	i1l3045
  4989                           
  4990                           ;messages.c: 77: if (qmsg->length > maxlength) {
  4991  000CE6  EE20 F001          	lfsr	2,1
  4992  000CEA  5017               	movf	i1recv_msg@qmsg,w,c
  4993  000CEC  26D9               	addwf	fsr2l,f,c
  4994  000CEE  5018               	movf	i1recv_msg@qmsg+1,w,c
  4995  000CF0  22DA               	addwfc	fsr2h,f,c
  4996  000CF2  50DF               	movf	indf2,w,c
  4997  000CF4  5C0D               	subwf	i1recv_msg@maxlength,w,c
  4998  000CF6  B0D8               	btfsc	status,0,c
  4999  000CF8  D002               	goto	i1l3029
  5000                           
  5001                           ;messages.c: 78: return (-3);
  5002  000CFA  0EFD               	movlw	253
  5003  000CFC  0012               	return	
  5004  000CFE                     i1l3029:
  5005                           
  5006                           ;messages.c: 79: }
  5007                           ;messages.c: 81: tlength = qmsg->length;
  5008  000CFE  EE20 F001          	lfsr	2,1
  5009  000D02  5017               	movf	i1recv_msg@qmsg,w,c
  5010  000D04  26D9               	addwf	fsr2l,f,c
  5011  000D06  5018               	movf	i1recv_msg@qmsg+1,w,c
  5012  000D08  22DA               	addwfc	fsr2h,f,c
  5013  000D0A  50DF               	movf	indf2,w,c
  5014  000D0C  6E12               	movwf	??i1_recv_msg& (0+255),c
  5015  000D0E  5012               	movf	??i1_recv_msg,w,c
  5016  000D10  6E15               	movwf	i1recv_msg@tlength,c
  5017  000D12  6A16               	clrf	i1recv_msg@tlength+1,c
  5018                           
  5019                           ;messages.c: 82: memcpy(data, qmsg->data, tlength);
  5020  000D14  C011  F002         	movff	i1recv_msg@data+1,i1memcpy@d1+1
  5021  000D18  C010  F001         	movff	i1recv_msg@data,i1memcpy@d1
  5022  000D1C  0E03               	movlw	3
  5023  000D1E  2417               	addwf	i1recv_msg@qmsg,w,c
  5024  000D20  6E12               	movwf	??i1_recv_msg& (0+255),c
  5025  000D22  0E00               	movlw	0
  5026  000D24  2018               	addwfc	i1recv_msg@qmsg+1,w,c
  5027  000D26  6E13               	movwf	(??i1_recv_msg+1)& (0+255),c
  5028  000D28  C012  F003         	movff	??i1_recv_msg,i1memcpy@s1
  5029  000D2C  C013  F004         	movff	??i1_recv_msg+1,i1memcpy@s1+1
  5030  000D30  C015  F005         	movff	i1recv_msg@tlength,i1memcpy@n
  5031  000D34  C016  F006         	movff	i1recv_msg@tlength+1,i1memcpy@n+1
  5032  000D38  EC14  F00A         	call	i1_memcpy	;wreg free
  5033                           
  5034                           ;messages.c: 88: qptr->cur_read_ind = (qptr->cur_read_ind + 1) % 4;
  5035  000D3C  EE20 F035          	lfsr	2,53
  5036  000D40  500B               	movf	i1recv_msg@qptr,w,c
  5037  000D42  26D9               	addwf	fsr2l,f,c
  5038  000D44  500C               	movf	i1recv_msg@qptr+1,w,c
  5039  000D46  22DA               	addwfc	fsr2h,f,c
  5040  000D48  EE10 F035          	lfsr	1,53
  5041  000D4C  500B               	movf	i1recv_msg@qptr,w,c
  5042  000D4E  26E1               	addwf	fsr1l,f,c
  5043  000D50  500C               	movf	i1recv_msg@qptr+1,w,c
  5044  000D52  22E2               	addwfc	fsr1h,f,c
  5045  000D54  50E7               	movf	indf1,w,c
  5046  000D56  6E12               	movwf	??i1_recv_msg& (0+255),c
  5047  000D58  2812               	incf	??i1_recv_msg,w,c
  5048  000D5A  0B03               	andlw	3
  5049  000D5C  6EDF               	movwf	indf2,c
  5050                           
  5051                           ;messages.c: 90: (*msgtype) = qmsg->msgtype;
  5052  000D5E  EE20 F002          	lfsr	2,2
  5053  000D62  5017               	movf	i1recv_msg@qmsg,w,c
  5054  000D64  26D9               	addwf	fsr2l,f,c
  5055  000D66  5018               	movf	i1recv_msg@qmsg+1,w,c
  5056  000D68  22DA               	addwfc	fsr2h,f,c
  5057  000D6A  C00E  FFE1         	movff	i1recv_msg@msgtype,fsr1l
  5058  000D6E  C00F  FFE2         	movff	i1recv_msg@msgtype+1,fsr1h
  5059  000D72  CFDF FFE7          	movff	indf2,indf1
  5060                           
  5061                           ;messages.c: 92: qmsg->full = 0;
  5062  000D76  C017  FFD9         	movff	i1recv_msg@qmsg,fsr2l
  5063  000D7A  C018  FFDA         	movff	i1recv_msg@qmsg+1,fsr2h
  5064  000D7E  0E00               	movlw	0
  5065  000D80  6EDF               	movwf	indf2,c
  5066                           
  5067                           ;messages.c: 93: return (tlength);
  5068  000D82  5015               	movf	i1recv_msg@tlength,w,c
  5069  000D84  0012               	return	
  5070  000D86                     i1l3045:
  5071                           
  5072                           ;messages.c: 95: return (-4);
  5073  000D86  0EFC               	movlw	252
  5074  000D88  0012               	return	
  5075  000D8A                     __end_ofi1_recv_msg:
  5076                           	opt stack 0
  5077                           pclatu	equ	0xFFB
  5078                           pclath	equ	0xFFA
  5079                           tblptru	equ	0xFF8
  5080                           tblptrh	equ	0xFF7
  5081                           tblptrl	equ	0xFF6
  5082                           tablat	equ	0xFF5
  5083                           prodh	equ	0xFF4
  5084                           prodl	equ	0xFF3
  5085                           intcon	equ	0xFF2
  5086                           intcon2	equ	0xFF1
  5087                           postinc0	equ	0xFEE
  5088                           fsr0h	equ	0xFEA
  5089                           fsr0l	equ	0xFE9
  5090                           wreg	equ	0xFE8
  5091                           indf1	equ	0xFE7
  5092                           fsr1h	equ	0xFE2
  5093                           fsr1l	equ	0xFE1
  5094                           bsr	equ	0xFE0
  5095                           indf2	equ	0xFDF
  5096                           postinc2	equ	0xFDE
  5097                           postdec2	equ	0xFDD
  5098                           fsr2h	equ	0xFDA
  5099                           fsr2l	equ	0xFD9
  5100                           status	equ	0xFD8
  5101                           
  5102 ;; *************** function _uart_recv_int_handler *****************
  5103 ;; Defined at:
  5104 ;;		line 11 in file "../src/my_uart.c"
  5105 ;; Parameters:    Size  Location     Type
  5106 ;;		None
  5107 ;; Auto vars:     Size  Location     Type
  5108 ;;  readin          1   26[COMRAM] unsigned char [1]
  5109 ;; Return value:  Size  Location     Type
  5110 ;;		None               void
  5111 ;; Registers used:
  5112 ;;		wreg, fsr1l, fsr1h, fsr2l, fsr2h, status,2, status,0, prodl, prodh, cstack
  5113 ;; Tracked objects:
  5114 ;;		On entry : 0/0
  5115 ;;		On exit  : 0/0
  5116 ;;		Unchanged: 0/0
  5117 ;; Data sizes:     COMRAM   BANK0   BANK1   BANK2   BANK3   BANK4   BANK5   BANK6   BANK7   BANK8   BANK9  BANK10  BANK1
      +1  BANK12  BANK13  BANK14
  5118 ;;      Params:         0       0       0       0       0       0       0       0       0       0       0       0       
      +0       0       0       0
  5119 ;;      Locals:         1       0       0       0       0       0       0       0       0       0       0       0       
      +0       0       0       0
  5120 ;;      Temps:          0       0       0       0       0       0       0       0       0       0       0       0       
      +0       0       0       0
  5121 ;;      Totals:         1       0       0       0       0       0       0       0       0       0       0       0       
      +0       0       0       0
  5122 ;;Total ram usage:        1 bytes
  5123 ;; Hardware stack levels used:    1
  5124 ;; Hardware stack levels required when called:    8
  5125 ;; This function calls:
  5126 ;;		_Read1USART
  5127 ;;		_ToMainLow_sendmsg
  5128 ;; This function is called by:
  5129 ;;		_InterruptHandlerLow
  5130 ;; This function uses a non-reentrant model
  5131 ;;
  5132                           
  5133                           	psect	text34
  5134  00155C                     __ptext34:
  5135                           	opt stack 0
  5136  00155C                     _uart_recv_int_handler:
  5137                           	opt stack 17
  5138                           
  5139                           ;my_uart.c: 12: if ((PIR1bits.RC1IF)) {
  5140                           
  5141                           ;incstack = 0
  5142  00155C  AA9E               	btfss	3998,5,c	;volatile
  5143  00155E  D00C               	goto	i1l3317
  5144                           
  5145                           ;my_uart.c: 13: unsigned char readin[1];
  5146                           ;my_uart.c: 14: readin[0] = Read1USART();
  5147  001560  EC1B  F00C         	call	_Read1USART	;wreg free
  5148  001564  6E1B               	movwf	uart_recv_int_handler@readin,c
  5149                           
  5150                           ;my_uart.c: 15: ToMainLow_sendmsg(1, 32, readin);
  5151  001566  0E20               	movlw	32
  5152  001568  6E17               	movwf	ToMainLow_sendmsg@msgtype,c
  5153  00156A  0E00               	movlw	high uart_recv_int_handler@readin
  5154  00156C  6E19               	movwf	ToMainLow_sendmsg@data+1,c
  5155  00156E  0E1B               	movlw	low uart_recv_int_handler@readin
  5156  001570  6E18               	movwf	ToMainLow_sendmsg@data,c
  5157  001572  0E01               	movlw	1
  5158  001574  EC09  F00C         	call	_ToMainLow_sendmsg
  5159  001578                     i1l3317:
  5160                           
  5161                           ;my_uart.c: 16: }
  5162                           ;my_uart.c: 18: if (USART1_Status.OVERRUN_ERROR == 1) {
  5163  001578  A633               	btfss	_USART1_Status,3,c
  5164  00157A  0012               	return	
  5165                           
  5166                           ;my_uart.c: 21: RCSTAbits.CREN = 0;
  5167  00157C  98AC               	bcf	4012,4,c	;volatile
  5168                           
  5169                           ;my_uart.c: 22: RCSTAbits.CREN = 1;
  5170  00157E  88AC               	bsf	4012,4,c	;volatile
  5171                           
  5172                           ;my_uart.c: 23: ToMainLow_sendmsg(0, 31, (void *) 0);
  5173  001580  0E1F               	movlw	31
  5174  001582  6E17               	movwf	ToMainLow_sendmsg@msgtype,c
  5175  001584  0E00               	movlw	0
  5176  001586  6E19               	movwf	ToMainLow_sendmsg@data+1,c
  5177  001588  0E00               	movlw	0
  5178  00158A  6E18               	movwf	ToMainLow_sendmsg@data,c
  5179  00158C  0E00               	movlw	0
  5180  00158E  EC09  F00C         	call	_ToMainLow_sendmsg
  5181  001592  0012               	return	
  5182  001594                     __end_of_uart_recv_int_handler:
  5183                           	opt stack 0
  5184                           pclatu	equ	0xFFB
  5185                           pclath	equ	0xFFA
  5186                           tblptru	equ	0xFF8
  5187                           tblptrh	equ	0xFF7
  5188                           tblptrl	equ	0xFF6
  5189                           tablat	equ	0xFF5
  5190                           prodh	equ	0xFF4
  5191                           prodl	equ	0xFF3
  5192                           intcon	equ	0xFF2
  5193                           intcon2	equ	0xFF1
  5194                           postinc0	equ	0xFEE
  5195                           fsr0h	equ	0xFEA
  5196                           fsr0l	equ	0xFE9
  5197                           wreg	equ	0xFE8
  5198                           indf1	equ	0xFE7
  5199                           fsr1h	equ	0xFE2
  5200                           fsr1l	equ	0xFE1
  5201                           bsr	equ	0xFE0
  5202                           indf2	equ	0xFDF
  5203                           postinc2	equ	0xFDE
  5204                           postdec2	equ	0xFDD
  5205                           fsr2h	equ	0xFDA
  5206                           fsr2l	equ	0xFD9
  5207                           status	equ	0xFD8
  5208                           
  5209 ;; *************** function _ToMainLow_sendmsg *****************
  5210 ;; Defined at:
  5211 ;;		line 104 in file "../src/messages.c"
  5212 ;; Parameters:    Size  Location     Type
  5213 ;;  length          1    wreg     unsigned char 
  5214 ;;  msgtype         1   22[COMRAM] unsigned char 
  5215 ;;  data            2   23[COMRAM] PTR void 
  5216 ;;		 -> NULL(0), uart_recv_int_handler@readin(1), 
  5217 ;; Auto vars:     Size  Location     Type
  5218 ;;  length          1   25[COMRAM] unsigned char 
  5219 ;; Return value:  Size  Location     Type
  5220 ;;                  1    wreg      char 
  5221 ;; Registers used:
  5222 ;;		wreg, fsr1l, fsr1h, fsr2l, fsr2h, status,2, status,0, prodl, prodh, cstack
  5223 ;; Tracked objects:
  5224 ;;		On entry : 0/0
  5225 ;;		On exit  : 0/0
  5226 ;;		Unchanged: 0/0
  5227 ;; Data sizes:     COMRAM   BANK0   BANK1   BANK2   BANK3   BANK4   BANK5   BANK6   BANK7   BANK8   BANK9  BANK10  BANK1
      +1  BANK12  BANK13  BANK14
  5228 ;;      Params:         3       0       0       0       0       0       0       0       0       0       0       0       
      +0       0       0       0
  5229 ;;      Locals:         1       0       0       0       0       0       0       0       0       0       0       0       
      +0       0       0       0
  5230 ;;      Temps:          0       0       0       0       0       0       0       0       0       0       0       0       
      +0       0       0       0
  5231 ;;      Totals:         4       0       0       0       0       0       0       0       0       0       0       0       
      +0       0       0       0
  5232 ;;Total ram usage:        4 bytes
  5233 ;; Hardware stack levels used:    1
  5234 ;; Hardware stack levels required when called:    7
  5235 ;; This function calls:
  5236 ;;		i1_send_msg
  5237 ;; This function is called by:
  5238 ;;		_uart_recv_int_handler
  5239 ;; This function uses a non-reentrant model
  5240 ;;
  5241                           
  5242                           	psect	text35
  5243  001812                     __ptext35:
  5244                           	opt stack 0
  5245  001812                     _ToMainLow_sendmsg:
  5246                           	opt stack 17
  5247                           
  5248                           ;incstack = 0
  5249                           ;ToMainLow_sendmsg@length stored from wreg
  5250  001812  6E1A               	movwf	ToMainLow_sendmsg@length,c
  5251                           
  5252                           ;messages.c: 110: return (send_msg(&ToMainLow_MQ, length, msgtype, data));
  5253                           ;	Return value of _ToMainLow_sendmsg is never used
  5254  001814  0100               	movlb	0	; () banked
  5255  001816  0E00               	movlw	high _ToMainLow_MQ
  5256  001818  6E0C               	movwf	i1send_msg@qptr+1,c
  5257  00181A  0100               	movlb	0	; () banked
  5258  00181C  0E61               	movlw	low _ToMainLow_MQ
  5259  00181E  6E0B               	movwf	i1send_msg@qptr,c
  5260  001820  C01A  F00D         	movff	ToMainLow_sendmsg@length,i1send_msg@length
  5261  001824  C017  F00E         	movff	ToMainLow_sendmsg@msgtype,i1send_msg@msgtype
  5262  001828  C019  F010         	movff	ToMainLow_sendmsg@data+1,i1send_msg@data+1
  5263  00182C  C018  F00F         	movff	ToMainLow_sendmsg@data,i1send_msg@data
  5264  001830  EC2A  F007         	call	i1_send_msg	;wreg free
  5265  001834  0012               	return	
  5266  001836                     __end_of_ToMainLow_sendmsg:
  5267                           	opt stack 0
  5268                           pclatu	equ	0xFFB
  5269                           pclath	equ	0xFFA
  5270                           tblptru	equ	0xFF8
  5271                           tblptrh	equ	0xFF7
  5272                           tblptrl	equ	0xFF6
  5273                           tablat	equ	0xFF5
  5274                           prodh	equ	0xFF4
  5275                           prodl	equ	0xFF3
  5276                           intcon	equ	0xFF2
  5277                           intcon2	equ	0xFF1
  5278                           postinc0	equ	0xFEE
  5279                           fsr0h	equ	0xFEA
  5280                           fsr0l	equ	0xFE9
  5281                           wreg	equ	0xFE8
  5282                           indf1	equ	0xFE7
  5283                           fsr1h	equ	0xFE2
  5284                           fsr1l	equ	0xFE1
  5285                           bsr	equ	0xFE0
  5286                           indf2	equ	0xFDF
  5287                           postinc2	equ	0xFDE
  5288                           postdec2	equ	0xFDD
  5289                           fsr2h	equ	0xFDA
  5290                           fsr2l	equ	0xFD9
  5291                           status	equ	0xFD8
  5292                           
  5293 ;; *************** function i1_send_msg *****************
  5294 ;; Defined at:
  5295 ;;		line 25 in file "../src/messages.c"
  5296 ;; Parameters:    Size  Location     Type
  5297 ;;  qptr            2   10[COMRAM] PTR struct __msg_queue
  5298 ;;		 -> FromMainHigh_MQ(54), FromMainLow_MQ(54), ToMainHigh_MQ(54), ToMainLow_MQ(54), 
  5299 ;;  length          1   12[COMRAM] unsigned char 
  5300 ;;  msgtype         1   13[COMRAM] unsigned char 
  5301 ;;  data            2   14[COMRAM] PTR void 
  5302 ;;		 -> NULL(0), uart_recv_int_handler@readin(1), i2c_int_handler@error_buf(3), main@msgbuffer(11), 
  5303 ;;		 -> main@t1thread_data(2), main@ic(31), 
  5304 ;; Auto vars:     Size  Location     Type
  5305 ;;  send_msg        2   20[COMRAM] PTR struct __msg
  5306 ;;		 -> FromMainLow_MQ.queue(52), FromMainHigh_MQ.queue(52), ToMainHigh_MQ.queue(52), ToMainLow_MQ.queue(52), 
  5307 ;;		 -> FromMainHigh_MQ(54), FromMainLow_MQ(54), ToMainHigh_MQ(54), ToMainLow_MQ(54), 
  5308 ;;  send_msg        2   17[COMRAM] unsigned int 
  5309 ;;  send_msg        1   19[COMRAM] unsigned char 
  5310 ;; Return value:  Size  Location     Type
  5311 ;;                  1    wreg      char 
  5312 ;; Registers used:
  5313 ;;		wreg, fsr1l, fsr1h, fsr2l, fsr2h, status,2, status,0, prodl, prodh, cstack
  5314 ;; Tracked objects:
  5315 ;;		On entry : 0/0
  5316 ;;		On exit  : 0/0
  5317 ;;		Unchanged: 0/0
  5318 ;; Data sizes:     COMRAM   BANK0   BANK1   BANK2   BANK3   BANK4   BANK5   BANK6   BANK7   BANK8   BANK9  BANK10  BANK1
      +1  BANK12  BANK13  BANK14
  5319 ;;      Params:         6       0       0       0       0       0       0       0       0       0       0       0       
      +0       0       0       0
  5320 ;;      Locals:         5       0       0       0       0       0       0       0       0       0       0       0       
      +0       0       0       0
  5321 ;;      Temps:          1       0       0       0       0       0       0       0       0       0       0       0       
      +0       0       0       0
  5322 ;;      Totals:        12       0       0       0       0       0       0       0       0       0       0       0       
      +0       0       0       0
  5323 ;;Total ram usage:       12 bytes
  5324 ;; Hardware stack levels used:    1
  5325 ;; Hardware stack levels required when called:    6
  5326 ;; This function calls:
  5327 ;;		i1_memcpy
  5328 ;; This function is called by:
  5329 ;;		_ToMainLow_sendmsg
  5330 ;; This function uses a non-reentrant model
  5331 ;;
  5332                           
  5333                           	psect	text36
  5334  000E54                     __ptext36:
  5335                           	opt stack 0
  5336  000E54                     i1_send_msg:
  5337                           	opt stack 17
  5338                           
  5339                           ;messages.c: 26: unsigned char slot;
  5340                           ;messages.c: 28: msg *qmsg;
  5341                           ;messages.c: 29: size_t tlength = length;
  5342                           
  5343                           ;incstack = 0
  5344  000E54  C00D  F012         	movff	i1send_msg@length,i1send_msg@tlength
  5345  000E58  6A13               	clrf	i1send_msg@tlength+1,c
  5346                           
  5347                           ;messages.c: 39: slot = qptr->cur_write_ind;
  5348  000E5A  EE20 F034          	lfsr	2,52
  5349  000E5E  500B               	movf	i1send_msg@qptr,w,c
  5350  000E60  26D9               	addwf	fsr2l,f,c
  5351  000E62  500C               	movf	i1send_msg@qptr+1,w,c
  5352  000E64  22DA               	addwfc	fsr2h,f,c
  5353  000E66  50DF               	movf	indf2,w,c
  5354  000E68  6E14               	movwf	i1send_msg@slot,c
  5355                           
  5356                           ;messages.c: 40: qmsg = &(qptr->queue[slot]);
  5357  000E6A  5014               	movf	i1send_msg@slot,w,c
  5358  000E6C  0D0D               	mullw	13
  5359  000E6E  50F3               	movf	prodl,w,c
  5360  000E70  240B               	addwf	i1send_msg@qptr,w,c
  5361  000E72  6E15               	movwf	i1send_msg@qmsg,c
  5362  000E74  50F4               	movf	prodh,w,c
  5363  000E76  200C               	addwfc	i1send_msg@qptr+1,w,c
  5364  000E78  6E16               	movwf	i1send_msg@qmsg+1,c
  5365                           
  5366                           ;messages.c: 42: if (qmsg->full != 0) {
  5367  000E7A  C015  FFD9         	movff	i1send_msg@qmsg,fsr2l
  5368  000E7E  C016  FFDA         	movff	i1send_msg@qmsg+1,fsr2h
  5369  000E82  50DF               	movf	indf2,w,c
  5370  000E84  B4D8               	btfsc	status,2,c
  5371  000E86  D002               	goto	i1l2981
  5372                           
  5373                           ;messages.c: 43: return (-1);
  5374  000E88  0EFF               	movlw	255
  5375  000E8A  0012               	return	
  5376  000E8C                     i1l2981:
  5377                           
  5378                           ;messages.c: 44: }
  5379                           ;messages.c: 47: qmsg->length = length;
  5380  000E8C  EE20 F001          	lfsr	2,1
  5381  000E90  5015               	movf	i1send_msg@qmsg,w,c
  5382  000E92  26D9               	addwf	fsr2l,f,c
  5383  000E94  5016               	movf	i1send_msg@qmsg+1,w,c
  5384  000E96  22DA               	addwfc	fsr2h,f,c
  5385  000E98  C00D  FFDF         	movff	i1send_msg@length,indf2
  5386                           
  5387                           ;messages.c: 48: qmsg->msgtype = msgtype;
  5388  000E9C  EE20 F002          	lfsr	2,2
  5389  000EA0  5015               	movf	i1send_msg@qmsg,w,c
  5390  000EA2  26D9               	addwf	fsr2l,f,c
  5391  000EA4  5016               	movf	i1send_msg@qmsg+1,w,c
  5392  000EA6  22DA               	addwfc	fsr2h,f,c
  5393  000EA8  C00E  FFDF         	movff	i1send_msg@msgtype,indf2
  5394                           
  5395                           ;messages.c: 56: memcpy(qmsg->data, data, tlength);
  5396  000EAC  0E03               	movlw	3
  5397  000EAE  2415               	addwf	i1send_msg@qmsg,w,c
  5398  000EB0  6E01               	movwf	i1memcpy@d1,c
  5399  000EB2  0E00               	movlw	0
  5400  000EB4  2016               	addwfc	i1send_msg@qmsg+1,w,c
  5401  000EB6  6E02               	movwf	i1memcpy@d1+1,c
  5402  000EB8  C010  F004         	movff	i1send_msg@data+1,i1memcpy@s1+1
  5403  000EBC  C00F  F003         	movff	i1send_msg@data,i1memcpy@s1
  5404  000EC0  C012  F005         	movff	i1send_msg@tlength,i1memcpy@n
  5405  000EC4  C013  F006         	movff	i1send_msg@tlength+1,i1memcpy@n+1
  5406  000EC8  EC14  F00A         	call	i1_memcpy	;wreg free
  5407                           
  5408                           ;messages.c: 57: qptr->cur_write_ind = (qptr->cur_write_ind + 1) % 4;
  5409  000ECC  EE20 F034          	lfsr	2,52
  5410  000ED0  500B               	movf	i1send_msg@qptr,w,c
  5411  000ED2  26D9               	addwf	fsr2l,f,c
  5412  000ED4  500C               	movf	i1send_msg@qptr+1,w,c
  5413  000ED6  22DA               	addwfc	fsr2h,f,c
  5414  000ED8  EE10 F034          	lfsr	1,52
  5415  000EDC  500B               	movf	i1send_msg@qptr,w,c
  5416  000EDE  26E1               	addwf	fsr1l,f,c
  5417  000EE0  500C               	movf	i1send_msg@qptr+1,w,c
  5418  000EE2  22E2               	addwfc	fsr1h,f,c
  5419  000EE4  50E7               	movf	indf1,w,c
  5420  000EE6  6E11               	movwf	??i1_send_msg& (0+255),c
  5421  000EE8  2811               	incf	??i1_send_msg,w,c
  5422  000EEA  0B03               	andlw	3
  5423  000EEC  6EDF               	movwf	indf2,c
  5424                           
  5425                           ;messages.c: 60: qmsg->full = 1;
  5426  000EEE  C015  FFD9         	movff	i1send_msg@qmsg,fsr2l
  5427  000EF2  C016  FFDA         	movff	i1send_msg@qmsg+1,fsr2h
  5428  000EF6  0E01               	movlw	1
  5429  000EF8  6EDF               	movwf	indf2,c
  5430                           
  5431                           ;messages.c: 61: return (1);
  5432  000EFA  0E01               	movlw	1
  5433  000EFC  0012               	return	
  5434  000EFE                     __end_ofi1_send_msg:
  5435                           	opt stack 0
  5436                           pclatu	equ	0xFFB
  5437                           pclath	equ	0xFFA
  5438                           tblptru	equ	0xFF8
  5439                           tblptrh	equ	0xFF7
  5440                           tblptrl	equ	0xFF6
  5441                           tablat	equ	0xFF5
  5442                           prodh	equ	0xFF4
  5443                           prodl	equ	0xFF3
  5444                           intcon	equ	0xFF2
  5445                           intcon2	equ	0xFF1
  5446                           postinc0	equ	0xFEE
  5447                           fsr0h	equ	0xFEA
  5448                           fsr0l	equ	0xFE9
  5449                           wreg	equ	0xFE8
  5450                           indf1	equ	0xFE7
  5451                           fsr1h	equ	0xFE2
  5452                           fsr1l	equ	0xFE1
  5453                           bsr	equ	0xFE0
  5454                           indf2	equ	0xFDF
  5455                           postinc2	equ	0xFDE
  5456                           postdec2	equ	0xFDD
  5457                           fsr2h	equ	0xFDA
  5458                           fsr2l	equ	0xFD9
  5459                           status	equ	0xFD8
  5460                           
  5461 ;; *************** function i1_memcpy *****************
  5462 ;; Defined at:
  5463 ;;		line 11 in file "C:\Program Files (x86)\Microchip\xc8\v1.33\sources\common\memcpy.c"
  5464 ;; Parameters:    Size  Location     Type
  5465 ;;  d1              2    0[COMRAM] PTR void 
  5466 ;;		 -> main@uc.queue(52), main@ic.queue(52), main@t1thread_data.queue(52), FromMainLow_MQ.queue(52), 
  5467 ;;		 -> FromMainHigh_MQ.queue(52), SensorData_MQ.queue(52), ToMainHigh_MQ.queue(52), ToMainLow_MQ.queue(52), 
  5468 ;;		 -> NULL(0), FromMainHigh_MQ(54), FromMainLow_MQ(54), SensorData_sendmsg@qptr.queue(52), 
  5469 ;;		 -> SensorData_sendmsg@qptr(2), ToMainHigh_MQ(54), ToMainLow_MQ(54), main@msgbuffer(11), 
  5470 ;;		 -> main@uc(14), 
  5471 ;;  s1              2    2[COMRAM] PTR const void 
  5472 ;;		 -> SensorData_sendmsg@qptr.data(10), SensorData_sendmsg@qptr.queue.data(10), main@t1thread_data.queue.data(10), mai
      +n@ic.queue.data(10), 
  5473 ;;		 -> main@uc.queue.data(10), SensorData_MQ.data(10), SensorData_MQ.queue.data(10), ToMainLow_MQ.data(10), 
  5474 ;;		 -> ToMainHigh_MQ.data(10), FromMainLow_MQ.data(10), FromMainHigh_MQ.data(10), ToMainLow_MQ.queue.data(10), 
  5475 ;;		 -> ToMainHigh_MQ.queue.data(10), FromMainHigh_MQ.queue.data(10), FromMainLow_MQ.queue.data(10), NULL(0), 
  5476 ;;		 -> uart_recv_int_handler@readin(1), i2c_int_handler@error_buf(3), FromMainHigh_MQ(54), FromMainLow_MQ(54), 
  5477 ;;		 -> SensorData_MQ(54), SensorData_sendmsg@qptr(2), ToMainHigh_MQ(54), ToMainLow_MQ(54), 
  5478 ;;		 -> main@msgbuffer(11), main@t1thread_data(2), main@ic(31), 
  5479 ;;  n               2    4[COMRAM] unsigned int 
  5480 ;; Auto vars:     Size  Location     Type
  5481 ;;  memcpy          2    8[COMRAM] PTR const unsigned char 
  5482 ;;		 -> SensorData_sendmsg@qptr.data(10), SensorData_sendmsg@qptr.queue.data(10), main@t1thread_data.queue.data(10), mai
      +n@ic.queue.data(10), 
  5483 ;;		 -> main@uc.queue.data(10), SensorData_MQ.data(10), SensorData_MQ.queue.data(10), ToMainLow_MQ.data(10), 
  5484 ;;		 -> ToMainHigh_MQ.data(10), FromMainLow_MQ.data(10), FromMainHigh_MQ.data(10), ToMainLow_MQ.queue.data(10), 
  5485 ;;		 -> ToMainHigh_MQ.queue.data(10), FromMainHigh_MQ.queue.data(10), FromMainLow_MQ.queue.data(10), NULL(0), 
  5486 ;;		 -> uart_recv_int_handler@readin(1), i2c_int_handler@error_buf(3), FromMainHigh_MQ(54), FromMainLow_MQ(54), 
  5487 ;;		 -> SensorData_MQ(54), SensorData_sendmsg@qptr(2), ToMainHigh_MQ(54), ToMainLow_MQ(54), 
  5488 ;;		 -> main@msgbuffer(11), main@t1thread_data(2), main@ic(31), 
  5489 ;;  memcpy          2    6[COMRAM] PTR unsigned char 
  5490 ;;		 -> main@uc.queue(52), main@ic.queue(52), main@t1thread_data.queue(52), FromMainLow_MQ.queue(52), 
  5491 ;;		 -> FromMainHigh_MQ.queue(52), SensorData_MQ.queue(52), ToMainHigh_MQ.queue(52), ToMainLow_MQ.queue(52), 
  5492 ;;		 -> NULL(0), FromMainHigh_MQ(54), FromMainLow_MQ(54), SensorData_sendmsg@qptr.queue(52), 
  5493 ;;		 -> SensorData_sendmsg@qptr(2), ToMainHigh_MQ(54), ToMainLow_MQ(54), main@msgbuffer(11), 
  5494 ;;		 -> main@uc(14), 
  5495 ;; Return value:  Size  Location     Type
  5496 ;;                  2    0[COMRAM] PTR void 
  5497 ;; Registers used:
  5498 ;;		wreg, fsr1l, fsr1h, fsr2l, fsr2h, status,2, status,0
  5499 ;; Tracked objects:
  5500 ;;		On entry : 0/0
  5501 ;;		On exit  : 0/0
  5502 ;;		Unchanged: 0/0
  5503 ;; Data sizes:     COMRAM   BANK0   BANK1   BANK2   BANK3   BANK4   BANK5   BANK6   BANK7   BANK8   BANK9  BANK10  BANK1
      +1  BANK12  BANK13  BANK14
  5504 ;;      Params:         6       0       0       0       0       0       0       0       0       0       0       0       
      +0       0       0       0
  5505 ;;      Locals:         4       0       0       0       0       0       0       0       0       0       0       0       
      +0       0       0       0
  5506 ;;      Temps:          0       0       0       0       0       0       0       0       0       0       0       0       
      +0       0       0       0
  5507 ;;      Totals:        10       0       0       0       0       0       0       0       0       0       0       0       
      +0       0       0       0
  5508 ;;Total ram usage:       10 bytes
  5509 ;; Hardware stack levels used:    1
  5510 ;; Hardware stack levels required when called:    5
  5511 ;; This function calls:
  5512 ;;		Nothing
  5513 ;; This function is called by:
  5514 ;;		i1_send_msg
  5515 ;;		i1_recv_msg
  5516 ;; This function uses a non-reentrant model
  5517 ;;
  5518                           
  5519                           	psect	text37
  5520  001428                     __ptext37:
  5521                           	opt stack 0
  5522  001428                     i1_memcpy:
  5523                           	opt stack 17
  5524                           
  5525                           ;incstack = 0
  5526  001428  C004  F00A         	movff	i1memcpy@s1+1,i1memcpy@s+1
  5527  00142C  C003  F009         	movff	i1memcpy@s1,i1memcpy@s
  5528  001430  C002  F008         	movff	i1memcpy@d1+1,i1memcpy@d+1
  5529  001434  C001  F007         	movff	i1memcpy@d1,i1memcpy@d
  5530  001438  D00E               	goto	i1l2913
  5531  00143A                     i1l2907:
  5532  00143A  C009  FFD9         	movff	i1memcpy@s,fsr2l
  5533  00143E  C00A  FFDA         	movff	i1memcpy@s+1,fsr2h
  5534  001442  C007  FFE1         	movff	i1memcpy@d,fsr1l
  5535  001446  C008  FFE2         	movff	i1memcpy@d+1,fsr1h
  5536  00144A  CFDF FFE7          	movff	indf2,indf1
  5537  00144E  4A09               	infsnz	i1memcpy@s,f,c
  5538  001450  2A0A               	incf	i1memcpy@s+1,f,c
  5539  001452  4A07               	infsnz	i1memcpy@d,f,c
  5540  001454  2A08               	incf	i1memcpy@d+1,f,c
  5541  001456                     i1l2913:
  5542  001456  0605               	decf	i1memcpy@n,f,c
  5543  001458  A0D8               	btfss	status,0,c
  5544  00145A  0606               	decf	i1memcpy@n+1,f,c
  5545  00145C  2805               	incf	i1memcpy@n& (0+255),w,c
  5546  00145E  B4D8               	btfsc	status,2,c
  5547  001460  2806               	incf	(i1memcpy@n+1)& (0+255),w,c
  5548  001462  B4D8               	btfsc	status,2,c
  5549                           
  5550                           ;	Return value of i1_memcpy is never used
  5551  001464  0012               	return	
  5552  001466  D7E9               	goto	i1l2907
  5553  001468                     __end_ofi1_memcpy:
  5554                           	opt stack 0
  5555                           pclatu	equ	0xFFB
  5556                           pclath	equ	0xFFA
  5557                           tblptru	equ	0xFF8
  5558                           tblptrh	equ	0xFF7
  5559                           tblptrl	equ	0xFF6
  5560                           tablat	equ	0xFF5
  5561                           prodh	equ	0xFF4
  5562                           prodl	equ	0xFF3
  5563                           intcon	equ	0xFF2
  5564                           intcon2	equ	0xFF1
  5565                           postinc0	equ	0xFEE
  5566                           fsr0h	equ	0xFEA
  5567                           fsr0l	equ	0xFE9
  5568                           wreg	equ	0xFE8
  5569                           indf1	equ	0xFE7
  5570                           fsr1h	equ	0xFE2
  5571                           fsr1l	equ	0xFE1
  5572                           bsr	equ	0xFE0
  5573                           indf2	equ	0xFDF
  5574                           postinc2	equ	0xFDE
  5575                           postdec2	equ	0xFDD
  5576                           fsr2h	equ	0xFDA
  5577                           fsr2l	equ	0xFD9
  5578                           status	equ	0xFD8
  5579                           
  5580 ;; *************** function _Read1USART *****************
  5581 ;; Defined at:
  5582 ;;		line 17 in file "C:\Program Files (x86)\Microchip\xc8\v1.33\sources\pic18\plib\USART\u1read.c"
  5583 ;; Parameters:    Size  Location     Type
  5584 ;;		None
  5585 ;; Auto vars:     Size  Location     Type
  5586 ;;  data            1    0[COMRAM] unsigned char 
  5587 ;; Return value:  Size  Location     Type
  5588 ;;                  1    wreg      unsigned char 
  5589 ;; Registers used:
  5590 ;;		wreg, status,2, status,0
  5591 ;; Tracked objects:
  5592 ;;		On entry : 0/0
  5593 ;;		On exit  : 0/0
  5594 ;;		Unchanged: 0/0
  5595 ;; Data sizes:     COMRAM   BANK0   BANK1   BANK2   BANK3   BANK4   BANK5   BANK6   BANK7   BANK8   BANK9  BANK10  BANK1
      +1  BANK12  BANK13  BANK14
  5596 ;;      Params:         0       0       0       0       0       0       0       0       0       0       0       0       
      +0       0       0       0
  5597 ;;      Locals:         1       0       0       0       0       0       0       0       0       0       0       0       
      +0       0       0       0
  5598 ;;      Temps:          0       0       0       0       0       0       0       0       0       0       0       0       
      +0       0       0       0
  5599 ;;      Totals:         1       0       0       0       0       0       0       0       0       0       0       0       
      +0       0       0       0
  5600 ;;Total ram usage:        1 bytes
  5601 ;; Hardware stack levels used:    1
  5602 ;; Hardware stack levels required when called:    5
  5603 ;; This function calls:
  5604 ;;		Nothing
  5605 ;; This function is called by:
  5606 ;;		_uart_recv_int_handler
  5607 ;; This function uses a non-reentrant model
  5608 ;;
  5609                           
  5610                           	psect	text38
  5611  001836                     __ptext38:
  5612                           	opt stack 0
  5613  001836                     _Read1USART:
  5614                           	opt stack 19
  5615                           
  5616                           ;incstack = 0
  5617  001836  0EF2               	movlw	242
  5618  001838  1633               	andwf	_USART1_Status,f,c
  5619  00183A  ACAC               	btfss	4012,6,c	;volatile
  5620  00183C  D003               	goto	i1l524
  5621  00183E  9033               	bcf	_USART1_Status,0,c
  5622  001840  B0AC               	btfsc	4012,0,c	;volatile
  5623  001842  8033               	bsf	_USART1_Status,0,c
  5624  001844                     i1l524:
  5625  001844  B4AC               	btfsc	4012,2,c	;volatile
  5626  001846  8433               	bsf	_USART1_Status,2,c
  5627  001848  B2AC               	btfsc	4012,1,c	;volatile
  5628  00184A  8633               	bsf	_USART1_Status,3,c
  5629  00184C  CFAF F001          	movff	4015,Read1USART@data	;volatile
  5630  001850  5001               	movf	Read1USART@data,w,c
  5631  001852  0012               	return	
  5632  001854                     __end_of_Read1USART:
  5633                           	opt stack 0
  5634                           pclatu	equ	0xFFB
  5635                           pclath	equ	0xFFA
  5636                           tblptru	equ	0xFF8
  5637                           tblptrh	equ	0xFF7
  5638                           tblptrl	equ	0xFF6
  5639                           tablat	equ	0xFF5
  5640                           prodh	equ	0xFF4
  5641                           prodl	equ	0xFF3
  5642                           intcon	equ	0xFF2
  5643                           intcon2	equ	0xFF1
  5644                           postinc0	equ	0xFEE
  5645                           fsr0h	equ	0xFEA
  5646                           fsr0l	equ	0xFE9
  5647                           wreg	equ	0xFE8
  5648                           indf1	equ	0xFE7
  5649                           fsr1h	equ	0xFE2
  5650                           fsr1l	equ	0xFE1
  5651                           bsr	equ	0xFE0
  5652                           indf2	equ	0xFDF
  5653                           postinc2	equ	0xFDE
  5654                           postdec2	equ	0xFDD
  5655                           fsr2h	equ	0xFDA
  5656                           fsr2l	equ	0xFD9
  5657                           status	equ	0xFD8
  5658                           
  5659 ;; *************** function _timer1_int_handler *****************
  5660 ;; Defined at:
  5661 ;;		line 39 in file "../src/user_interrupts.c"
  5662 ;; Parameters:    Size  Location     Type
  5663 ;;		None
  5664 ;; Auto vars:     Size  Location     Type
  5665 ;;  result          2    4[COMRAM] unsigned int 
  5666 ;;  right           1    8[COMRAM] unsigned char [1]
  5667 ;;  left            1    7[COMRAM] unsigned char [1]
  5668 ;;  forward         1    6[COMRAM] unsigned char [1]
  5669 ;;  i               1    0        unsigned char 
  5670 ;; Return value:  Size  Location     Type
  5671 ;;		None               void
  5672 ;; Registers used:
  5673 ;;		wreg, status,2, cstack
  5674 ;; Tracked objects:
  5675 ;;		On entry : 0/0
  5676 ;;		On exit  : 0/0
  5677 ;;		Unchanged: 0/0
  5678 ;; Data sizes:     COMRAM   BANK0   BANK1   BANK2   BANK3   BANK4   BANK5   BANK6   BANK7   BANK8   BANK9  BANK10  BANK1
      +1  BANK12  BANK13  BANK14
  5679 ;;      Params:         0       0       0       0       0       0       0       0       0       0       0       0       
      +0       0       0       0
  5680 ;;      Locals:         5       0       0       0       0       0       0       0       0       0       0       0       
      +0       0       0       0
  5681 ;;      Temps:          0       0       0       0       0       0       0       0       0       0       0       0       
      +0       0       0       0
  5682 ;;      Totals:         5       0       0       0       0       0       0       0       0       0       0       0       
      +0       0       0       0
  5683 ;;Total ram usage:        5 bytes
  5684 ;; Hardware stack levels used:    1
  5685 ;; Hardware stack levels required when called:    6
  5686 ;; This function calls:
  5687 ;;		_ReadTimer1
  5688 ;;		_WriteTimer1
  5689 ;; This function is called by:
  5690 ;;		_InterruptHandlerLow
  5691 ;; This function uses a non-reentrant model
  5692 ;;
  5693                           
  5694                           	psect	text39
  5695  0017EC                     __ptext39:
  5696                           	opt stack 0
  5697  0017EC                     _timer1_int_handler:
  5698                           	opt stack 19
  5699                           
  5700                           ;user_interrupts.c: 40: unsigned int result;
  5701                           ;user_interrupts.c: 47: result = ReadTimer1();
  5702                           
  5703                           ;incstack = 0
  5704  0017EC  EC4F  F00C         	call	_ReadTimer1	;wreg free
  5705  0017F0  C001  F005         	movff	?_ReadTimer1,timer1_int_handler@result
  5706  0017F4  C002  F006         	movff	?_ReadTimer1+1,timer1_int_handler@result+1
  5707                           
  5708                           ;user_interrupts.c: 50: unsigned char i;
  5709                           ;user_interrupts.c: 51: unsigned char forward[1], left[1], right[1];
  5710                           ;user_interrupts.c: 52: forward[0] = 0x0A;
  5711  0017F8  0E0A               	movlw	10
  5712  0017FA  6E07               	movwf	timer1_int_handler@forward,c
  5713                           
  5714                           ;user_interrupts.c: 53: left[0] = 0x0B;
  5715  0017FC  0E0B               	movlw	11
  5716  0017FE  6E08               	movwf	timer1_int_handler@left,c
  5717                           
  5718                           ;user_interrupts.c: 54: right[0] = 0x0C;
  5719  001800  0E0C               	movlw	12
  5720  001802  6E09               	movwf	timer1_int_handler@right,c
  5721                           
  5722                           ;user_interrupts.c: 77: WriteTimer1(0);
  5723  001804  0E00               	movlw	0
  5724  001806  6E02               	movwf	WriteTimer1@timer1+1,c
  5725  001808  0E00               	movlw	0
  5726  00180A  6E01               	movwf	WriteTimer1@timer1,c
  5727  00180C  EC46  F00C         	call	_WriteTimer1	;wreg free
  5728  001810  0012               	return	
  5729  001812                     __end_of_timer1_int_handler:
  5730                           	opt stack 0
  5731                           pclatu	equ	0xFFB
  5732                           pclath	equ	0xFFA
  5733                           tblptru	equ	0xFF8
  5734                           tblptrh	equ	0xFF7
  5735                           tblptrl	equ	0xFF6
  5736                           tablat	equ	0xFF5
  5737                           prodh	equ	0xFF4
  5738                           prodl	equ	0xFF3
  5739                           intcon	equ	0xFF2
  5740                           intcon2	equ	0xFF1
  5741                           postinc0	equ	0xFEE
  5742                           fsr0h	equ	0xFEA
  5743                           fsr0l	equ	0xFE9
  5744                           wreg	equ	0xFE8
  5745                           indf1	equ	0xFE7
  5746                           fsr1h	equ	0xFE2
  5747                           fsr1l	equ	0xFE1
  5748                           bsr	equ	0xFE0
  5749                           indf2	equ	0xFDF
  5750                           postinc2	equ	0xFDE
  5751                           postdec2	equ	0xFDD
  5752                           fsr2h	equ	0xFDA
  5753                           fsr2l	equ	0xFD9
  5754                           status	equ	0xFD8
  5755                           
  5756 ;; *************** function _WriteTimer1 *****************
  5757 ;; Defined at:
  5758 ;;		line 14 in file "C:\Program Files (x86)\Microchip\xc8\v1.33\sources\pic18\plib\Timers\t1write.c"
  5759 ;; Parameters:    Size  Location     Type
  5760 ;;  timer1          2    0[COMRAM] unsigned int 
  5761 ;; Auto vars:     Size  Location     Type
  5762 ;;  timer           2    2[COMRAM] struct Timers
  5763 ;; Return value:  Size  Location     Type
  5764 ;;		None               void
  5765 ;; Registers used:
  5766 ;;		None
  5767 ;; Tracked objects:
  5768 ;;		On entry : 0/0
  5769 ;;		On exit  : 0/0
  5770 ;;		Unchanged: 0/0
  5771 ;; Data sizes:     COMRAM   BANK0   BANK1   BANK2   BANK3   BANK4   BANK5   BANK6   BANK7   BANK8   BANK9  BANK10  BANK1
      +1  BANK12  BANK13  BANK14
  5772 ;;      Params:         2       0       0       0       0       0       0       0       0       0       0       0       
      +0       0       0       0
  5773 ;;      Locals:         2       0       0       0       0       0       0       0       0       0       0       0       
      +0       0       0       0
  5774 ;;      Temps:          0       0       0       0       0       0       0       0       0       0       0       0       
      +0       0       0       0
  5775 ;;      Totals:         4       0       0       0       0       0       0       0       0       0       0       0       
      +0       0       0       0
  5776 ;;Total ram usage:        4 bytes
  5777 ;; Hardware stack levels used:    1
  5778 ;; Hardware stack levels required when called:    5
  5779 ;; This function calls:
  5780 ;;		Nothing
  5781 ;; This function is called by:
  5782 ;;		_timer1_int_handler
  5783 ;; This function uses a non-reentrant model
  5784 ;;
  5785                           
  5786                           	psect	text40
  5787  00188C                     __ptext40:
  5788                           	opt stack 0
  5789  00188C                     _WriteTimer1:
  5790                           	opt stack 19
  5791                           
  5792                           ;incstack = 0
  5793  00188C  C001  F003         	movff	WriteTimer1@timer1,WriteTimer1@timer
  5794  001890  C002  F004         	movff	WriteTimer1@timer1+1,WriteTimer1@timer+1
  5795  001894  C004  FFCF         	movff	WriteTimer1@timer+1,4047	;volatile
  5796  001898  C003  FFCE         	movff	WriteTimer1@timer,4046	;volatile
  5797  00189C  0012               	return	
  5798  00189E                     __end_of_WriteTimer1:
  5799                           	opt stack 0
  5800                           pclatu	equ	0xFFB
  5801                           pclath	equ	0xFFA
  5802                           tblptru	equ	0xFF8
  5803                           tblptrh	equ	0xFF7
  5804                           tblptrl	equ	0xFF6
  5805                           tablat	equ	0xFF5
  5806                           prodh	equ	0xFF4
  5807                           prodl	equ	0xFF3
  5808                           intcon	equ	0xFF2
  5809                           intcon2	equ	0xFF1
  5810                           postinc0	equ	0xFEE
  5811                           fsr0h	equ	0xFEA
  5812                           fsr0l	equ	0xFE9
  5813                           wreg	equ	0xFE8
  5814                           indf1	equ	0xFE7
  5815                           fsr1h	equ	0xFE2
  5816                           fsr1l	equ	0xFE1
  5817                           bsr	equ	0xFE0
  5818                           indf2	equ	0xFDF
  5819                           postinc2	equ	0xFDE
  5820                           postdec2	equ	0xFDD
  5821                           fsr2h	equ	0xFDA
  5822                           fsr2l	equ	0xFD9
  5823                           status	equ	0xFD8
  5824                           
  5825 ;; *************** function _ReadTimer1 *****************
  5826 ;; Defined at:
  5827 ;;		line 15 in file "C:\Program Files (x86)\Microchip\xc8\v1.33\sources\pic18\plib\Timers\t1read.c"
  5828 ;; Parameters:    Size  Location     Type
  5829 ;;		None
  5830 ;; Auto vars:     Size  Location     Type
  5831 ;;  timer           2    2[COMRAM] struct Timers
  5832 ;; Return value:  Size  Location     Type
  5833 ;;                  2    0[COMRAM] unsigned int 
  5834 ;; Registers used:
  5835 ;;		None
  5836 ;; Tracked objects:
  5837 ;;		On entry : 0/0
  5838 ;;		On exit  : 0/0
  5839 ;;		Unchanged: 0/0
  5840 ;; Data sizes:     COMRAM   BANK0   BANK1   BANK2   BANK3   BANK4   BANK5   BANK6   BANK7   BANK8   BANK9  BANK10  BANK1
      +1  BANK12  BANK13  BANK14
  5841 ;;      Params:         2       0       0       0       0       0       0       0       0       0       0       0       
      +0       0       0       0
  5842 ;;      Locals:         2       0       0       0       0       0       0       0       0       0       0       0       
      +0       0       0       0
  5843 ;;      Temps:          0       0       0       0       0       0       0       0       0       0       0       0       
      +0       0       0       0
  5844 ;;      Totals:         4       0       0       0       0       0       0       0       0       0       0       0       
      +0       0       0       0
  5845 ;;Total ram usage:        4 bytes
  5846 ;; Hardware stack levels used:    1
  5847 ;; Hardware stack levels required when called:    5
  5848 ;; This function calls:
  5849 ;;		Nothing
  5850 ;; This function is called by:
  5851 ;;		_timer1_int_handler
  5852 ;; This function uses a non-reentrant model
  5853 ;;
  5854                           
  5855                           	psect	text41
  5856  00189E                     __ptext41:
  5857                           	opt stack 0
  5858  00189E                     _ReadTimer1:
  5859                           	opt stack 19
  5860                           
  5861                           ;incstack = 0
  5862  00189E  CFCE F003          	movff	4046,ReadTimer1@timer	;volatile
  5863  0018A2  CFCF F004          	movff	4047,ReadTimer1@timer+1	;volatile
  5864  0018A6  C003  F001         	movff	ReadTimer1@timer,?_ReadTimer1
  5865  0018AA  C004  F002         	movff	ReadTimer1@timer+1,?_ReadTimer1+1
  5866  0018AE  0012               	return	
  5867  0018B0                     __end_of_ReadTimer1:
  5868                           	opt stack 0
  5869                           pclatu	equ	0xFFB
  5870                           pclath	equ	0xFFA
  5871                           tblptru	equ	0xFF8
  5872                           tblptrh	equ	0xFF7
  5873                           tblptrl	equ	0xFF6
  5874                           tablat	equ	0xFF5
  5875                           prodh	equ	0xFF4
  5876                           prodl	equ	0xFF3
  5877                           intcon	equ	0xFF2
  5878                           intcon2	equ	0xFF1
  5879                           postinc0	equ	0xFEE
  5880                           fsr0h	equ	0xFEA
  5881                           fsr0l	equ	0xFE9
  5882                           wreg	equ	0xFE8
  5883                           indf1	equ	0xFE7
  5884                           fsr1h	equ	0xFE2
  5885                           fsr1l	equ	0xFE1
  5886                           bsr	equ	0xFE0
  5887                           indf2	equ	0xFDF
  5888                           postinc2	equ	0xFDE
  5889                           postdec2	equ	0xFDD
  5890                           fsr2h	equ	0xFDA
  5891                           fsr2l	equ	0xFD9
  5892                           status	equ	0xFD8
  5893                           
  5894 ;; *************** function _InterruptHandlerHigh *****************
  5895 ;; Defined at:
  5896 ;;		line 84 in file "../src/interrupts.c"
  5897 ;; Parameters:    Size  Location     Type
  5898 ;;		None
  5899 ;; Auto vars:     Size  Location     Type
  5900 ;;		None
  5901 ;; Return value:  Size  Location     Type
  5902 ;;		None               void
  5903 ;; Registers used:
  5904 ;;		wreg, fsr1l, fsr1h, fsr2l, fsr2h, status,2, status,0, prodl, prodh, cstack
  5905 ;; Tracked objects:
  5906 ;;		On entry : 0/0
  5907 ;;		On exit  : 0/0
  5908 ;;		Unchanged: 0/0
  5909 ;; Data sizes:     COMRAM   BANK0   BANK1   BANK2   BANK3   BANK4   BANK5   BANK6   BANK7   BANK8   BANK9  BANK10  BANK1
      +1  BANK12  BANK13  BANK14
  5910 ;;      Params:         0       0       0       0       0       0       0       0       0       0       0       0       
      +0       0       0       0
  5911 ;;      Locals:         0       0       0       0       0       0       0       0       0       0       0       0       
      +0       0       0       0
  5912 ;;      Temps:          0      14       0       0       0       0       0       0       0       0       0       0       
      +0       0       0       0
  5913 ;;      Totals:         0      14       0       0       0       0       0       0       0       0       0       0       
      +0       0       0       0
  5914 ;;Total ram usage:       14 bytes
  5915 ;; Hardware stack levels used:    1
  5916 ;; Hardware stack levels required when called:    4
  5917 ;; This function calls:
  5918 ;;		_SleepIfOkay
  5919 ;;		_i2c_int_handler
  5920 ;;		_timer0_int_handler
  5921 ;; This function is called by:
  5922 ;;		Interrupt level 2
  5923 ;; This function uses a non-reentrant model
  5924 ;;
  5925                           
  5926                           	psect	intcode
  5927  000008                     __pintcode:
  5928                           	opt stack 0
  5929  000008                     _InterruptHandlerHigh:
  5930                           	opt stack 17
  5931                           
  5932                           ;incstack = 0
  5933  000008  CFFA F0BB          	movff	pclath,??_InterruptHandlerHigh
  5934  00000C  CFFB F0BC          	movff	pclatu,??_InterruptHandlerHigh+1
  5935  000010  CFE9 F0BD          	movff	fsr0l,??_InterruptHandlerHigh+2
  5936  000014  EFCD  F007         	goto	int_func
  5937                           pclatu	equ	0xFFB
  5938                           pclath	equ	0xFFA
  5939                           tblptru	equ	0xFF8
  5940                           tblptrh	equ	0xFF7
  5941                           tblptrl	equ	0xFF6
  5942                           tablat	equ	0xFF5
  5943                           prodh	equ	0xFF4
  5944                           prodl	equ	0xFF3
  5945                           intcon	equ	0xFF2
  5946                           intcon2	equ	0xFF1
  5947                           postinc0	equ	0xFEE
  5948                           fsr0h	equ	0xFEA
  5949                           fsr0l	equ	0xFE9
  5950                           wreg	equ	0xFE8
  5951                           indf1	equ	0xFE7
  5952                           fsr1h	equ	0xFE2
  5953                           fsr1l	equ	0xFE1
  5954                           bsr	equ	0xFE0
  5955                           indf2	equ	0xFDF
  5956                           postinc2	equ	0xFDE
  5957                           postdec2	equ	0xFDD
  5958                           fsr2h	equ	0xFDA
  5959                           fsr2l	equ	0xFD9
  5960                           status	equ	0xFD8
  5961                           
  5962                           	psect	intcode_body
  5963  000F9A                     __pintcode_body:
  5964                           	opt stack 17
  5965  000F9A                     int_func:
  5966                           	opt stack 17
  5967  000F9A  CFEA F0BE          	movff	fsr0h,??_InterruptHandlerHigh+3
  5968  000F9E  CFE1 F0BF          	movff	fsr1l,??_InterruptHandlerHigh+4
  5969  000FA2  CFE2 F0C0          	movff	fsr1h,??_InterruptHandlerHigh+5
  5970  000FA6  CFD9 F0C1          	movff	fsr2l,??_InterruptHandlerHigh+6
  5971  000FAA  CFDA F0C2          	movff	fsr2h,??_InterruptHandlerHigh+7
  5972  000FAE  CFF3 F0C3          	movff	prodl,??_InterruptHandlerHigh+8
  5973  000FB2  CFF4 F0C4          	movff	prodh,??_InterruptHandlerHigh+9
  5974  000FB6  CFF6 F0C5          	movff	tblptrl,??_InterruptHandlerHigh+10
  5975  000FBA  CFF7 F0C6          	movff	tblptrh,??_InterruptHandlerHigh+11
  5976  000FBE  CFF8 F0C7          	movff	tblptru,??_InterruptHandlerHigh+12
  5977  000FC2  CFF5 F0C8          	movff	tablat,??_InterruptHandlerHigh+13
  5978                           
  5979                           ;interrupts.c: 91: if (PIR1bits.SSPIF) {
  5980  000FC6  A69E               	btfss	3998,3,c	;volatile
  5981  000FC8  D003               	goto	i2l3525
  5982                           
  5983                           ;interrupts.c: 93: PIR1bits.SSPIF = 0;
  5984  000FCA  969E               	bcf	3998,3,c	;volatile
  5985                           
  5986                           ;interrupts.c: 95: i2c_int_handler();
  5987  000FCC  EC62  F000         	call	_i2c_int_handler	;wreg free
  5988  000FD0                     i2l3525:
  5989                           
  5990                           ;interrupts.c: 96: }
  5991                           ;interrupts.c: 99: if (INTCONbits.TMR0IF) {
  5992  000FD0  A4F2               	btfss	intcon,2,c	;volatile
  5993  000FD2  D003               	goto	i2l3531
  5994                           
  5995                           ;interrupts.c: 100: INTCONbits.TMR0IF = 0;
  5996  000FD4  94F2               	bcf	intcon,2,c	;volatile
  5997                           
  5998                           ;interrupts.c: 102: timer0_int_handler();
  5999  000FD6  EC58  F00C         	call	_timer0_int_handler	;wreg free
  6000  000FDA                     i2l3531:
  6001                           
  6002                           ;interrupts.c: 103: }
  6003                           ;interrupts.c: 112: SleepIfOkay();
  6004  000FDA  EC40  F009         	call	_SleepIfOkay	;wreg free
  6005  000FDE  C0C8  FFF5         	movff	??_InterruptHandlerHigh+13,tablat
  6006  000FE2  C0C7  FFF8         	movff	??_InterruptHandlerHigh+12,tblptru
  6007  000FE6  C0C6  FFF7         	movff	??_InterruptHandlerHigh+11,tblptrh
  6008  000FEA  C0C5  FFF6         	movff	??_InterruptHandlerHigh+10,tblptrl
  6009  000FEE  C0C4  FFF4         	movff	??_InterruptHandlerHigh+9,prodh
  6010  000FF2  C0C3  FFF3         	movff	??_InterruptHandlerHigh+8,prodl
  6011  000FF6  C0C2  FFDA         	movff	??_InterruptHandlerHigh+7,fsr2h
  6012  000FFA  C0C1  FFD9         	movff	??_InterruptHandlerHigh+6,fsr2l
  6013  000FFE  C0C0  FFE2         	movff	??_InterruptHandlerHigh+5,fsr1h
  6014  001002  C0BF  FFE1         	movff	??_InterruptHandlerHigh+4,fsr1l
  6015  001006  C0BE  FFEA         	movff	??_InterruptHandlerHigh+3,fsr0h
  6016  00100A  C0BD  FFE9         	movff	??_InterruptHandlerHigh+2,fsr0l
  6017  00100E  C0BC  FFFB         	movff	??_InterruptHandlerHigh+1,pclatu
  6018  001012  C0BB  FFFA         	movff	??_InterruptHandlerHigh,pclath
  6019  001016  0011               	retfie		f
  6020  001018                     __end_of_InterruptHandlerHigh:
  6021                           	opt stack 0
  6022                           pclatu	equ	0xFFB
  6023                           pclath	equ	0xFFA
  6024                           tblptru	equ	0xFF8
  6025                           tblptrh	equ	0xFF7
  6026                           tblptrl	equ	0xFF6
  6027                           tablat	equ	0xFF5
  6028                           prodh	equ	0xFF4
  6029                           prodl	equ	0xFF3
  6030                           intcon	equ	0xFF2
  6031                           intcon2	equ	0xFF1
  6032                           postinc0	equ	0xFEE
  6033                           fsr0h	equ	0xFEA
  6034                           fsr0l	equ	0xFE9
  6035                           wreg	equ	0xFE8
  6036                           indf1	equ	0xFE7
  6037                           fsr1h	equ	0xFE2
  6038                           fsr1l	equ	0xFE1
  6039                           bsr	equ	0xFE0
  6040                           indf2	equ	0xFDF
  6041                           postinc2	equ	0xFDE
  6042                           postdec2	equ	0xFDD
  6043                           fsr2h	equ	0xFDA
  6044                           fsr2l	equ	0xFD9
  6045                           status	equ	0xFD8
  6046                           
  6047 ;; *************** function _timer0_int_handler *****************
  6048 ;; Defined at:
  6049 ;;		line 18 in file "../src/user_interrupts.c"
  6050 ;; Parameters:    Size  Location     Type
  6051 ;;		None
  6052 ;; Auto vars:     Size  Location     Type
  6053 ;;  msgtype         2    0        int 
  6054 ;;  length          2    0        int 
  6055 ;;  val             2    0        unsigned int 
  6056 ;; Return value:  Size  Location     Type
  6057 ;;		None               void
  6058 ;; Registers used:
  6059 ;;		wreg, status,2, cstack
  6060 ;; Tracked objects:
  6061 ;;		On entry : 0/0
  6062 ;;		On exit  : 0/0
  6063 ;;		Unchanged: 0/0
  6064 ;; Data sizes:     COMRAM   BANK0   BANK1   BANK2   BANK3   BANK4   BANK5   BANK6   BANK7   BANK8   BANK9  BANK10  BANK1
      +1  BANK12  BANK13  BANK14
  6065 ;;      Params:         0       0       0       0       0       0       0       0       0       0       0       0       
      +0       0       0       0
  6066 ;;      Locals:         0       0       0       0       0       0       0       0       0       0       0       0       
      +0       0       0       0
  6067 ;;      Temps:          0       0       0       0       0       0       0       0       0       0       0       0       
      +0       0       0       0
  6068 ;;      Totals:         0       0       0       0       0       0       0       0       0       0       0       0       
      +0       0       0       0
  6069 ;;Total ram usage:        0 bytes
  6070 ;; Hardware stack levels used:    1
  6071 ;; Hardware stack levels required when called:    1
  6072 ;; This function calls:
  6073 ;;		_WriteTimer0
  6074 ;; This function is called by:
  6075 ;;		_InterruptHandlerHigh
  6076 ;; This function uses a non-reentrant model
  6077 ;;
  6078                           
  6079                           	psect	text43
  6080  0018B0                     __ptext43:
  6081                           	opt stack 0
  6082  0018B0                     _timer0_int_handler:
  6083                           	opt stack 19
  6084                           
  6085                           ;user_interrupts.c: 19: unsigned int val;
  6086                           ;user_interrupts.c: 20: int length, msgtype;
  6087                           ;user_interrupts.c: 28: WriteTimer0(0);
  6088                           
  6089                           ;incstack = 0
  6090  0018B0  0E00               	movlw	0
  6091  0018B2  0100               	movlb	0	; () banked
  6092  0018B4  6F98               	movwf	(WriteTimer0@timer0+1)& (0+255),b
  6093  0018B6  0E00               	movlw	0
  6094  0018B8  0100               	movlb	0	; () banked
  6095  0018BA  6F97               	movwf	WriteTimer0@timer0& (0+255),b
  6096  0018BC  EC61  F00C         	call	_WriteTimer0	;wreg free
  6097  0018C0  0012               	return	
  6098  0018C2                     __end_of_timer0_int_handler:
  6099                           	opt stack 0
  6100                           pclatu	equ	0xFFB
  6101                           pclath	equ	0xFFA
  6102                           tblptru	equ	0xFF8
  6103                           tblptrh	equ	0xFF7
  6104                           tblptrl	equ	0xFF6
  6105                           tablat	equ	0xFF5
  6106                           prodh	equ	0xFF4
  6107                           prodl	equ	0xFF3
  6108                           intcon	equ	0xFF2
  6109                           intcon2	equ	0xFF1
  6110                           postinc0	equ	0xFEE
  6111                           fsr0h	equ	0xFEA
  6112                           fsr0l	equ	0xFE9
  6113                           wreg	equ	0xFE8
  6114                           indf1	equ	0xFE7
  6115                           fsr1h	equ	0xFE2
  6116                           fsr1l	equ	0xFE1
  6117                           bsr	equ	0xFE0
  6118                           indf2	equ	0xFDF
  6119                           postinc2	equ	0xFDE
  6120                           postdec2	equ	0xFDD
  6121                           fsr2h	equ	0xFDA
  6122                           fsr2l	equ	0xFD9
  6123                           status	equ	0xFD8
  6124                           
  6125 ;; *************** function _WriteTimer0 *****************
  6126 ;; Defined at:
  6127 ;;		line 16 in file "C:\Program Files (x86)\Microchip\xc8\v1.33\sources\pic18\plib\Timers\t0write.c"
  6128 ;; Parameters:    Size  Location     Type
  6129 ;;  timer0          2    0[BANK0 ] unsigned int 
  6130 ;; Auto vars:     Size  Location     Type
  6131 ;;  timer           2    2[BANK0 ] struct Timers
  6132 ;; Return value:  Size  Location     Type
  6133 ;;		None               void
  6134 ;; Registers used:
  6135 ;;		None
  6136 ;; Tracked objects:
  6137 ;;		On entry : 0/0
  6138 ;;		On exit  : 0/0
  6139 ;;		Unchanged: 0/0
  6140 ;; Data sizes:     COMRAM   BANK0   BANK1   BANK2   BANK3   BANK4   BANK5   BANK6   BANK7   BANK8   BANK9  BANK10  BANK1
      +1  BANK12  BANK13  BANK14
  6141 ;;      Params:         0       2       0       0       0       0       0       0       0       0       0       0       
      +0       0       0       0
  6142 ;;      Locals:         0       2       0       0       0       0       0       0       0       0       0       0       
      +0       0       0       0
  6143 ;;      Temps:          0       0       0       0       0       0       0       0       0       0       0       0       
      +0       0       0       0
  6144 ;;      Totals:         0       4       0       0       0       0       0       0       0       0       0       0       
      +0       0       0       0
  6145 ;;Total ram usage:        4 bytes
  6146 ;; Hardware stack levels used:    1
  6147 ;; This function calls:
  6148 ;;		Nothing
  6149 ;; This function is called by:
  6150 ;;		_timer0_int_handler
  6151 ;; This function uses a non-reentrant model
  6152 ;;
  6153                           
  6154                           	psect	text44
  6155  0018C2                     __ptext44:
  6156                           	opt stack 0
  6157  0018C2                     _WriteTimer0:
  6158                           	opt stack 19
  6159                           
  6160                           ;incstack = 0
  6161  0018C2  C097  F099         	movff	WriteTimer0@timer0,WriteTimer0@timer
  6162  0018C6  C098  F09A         	movff	WriteTimer0@timer0+1,WriteTimer0@timer+1
  6163  0018CA  C09A  FFD7         	movff	WriteTimer0@timer+1,4055	;volatile
  6164  0018CE  C099  FFD6         	movff	WriteTimer0@timer,4054	;volatile
  6165  0018D2  0012               	return	
  6166  0018D4                     __end_of_WriteTimer0:
  6167                           	opt stack 0
  6168                           pclatu	equ	0xFFB
  6169                           pclath	equ	0xFFA
  6170                           tblptru	equ	0xFF8
  6171                           tblptrh	equ	0xFF7
  6172                           tblptrl	equ	0xFF6
  6173                           tablat	equ	0xFF5
  6174                           prodh	equ	0xFF4
  6175                           prodl	equ	0xFF3
  6176                           intcon	equ	0xFF2
  6177                           intcon2	equ	0xFF1
  6178                           postinc0	equ	0xFEE
  6179                           fsr0h	equ	0xFEA
  6180                           fsr0l	equ	0xFE9
  6181                           wreg	equ	0xFE8
  6182                           indf1	equ	0xFE7
  6183                           fsr1h	equ	0xFE2
  6184                           fsr1l	equ	0xFE1
  6185                           bsr	equ	0xFE0
  6186                           indf2	equ	0xFDF
  6187                           postinc2	equ	0xFDE
  6188                           postdec2	equ	0xFDD
  6189                           fsr2h	equ	0xFDA
  6190                           fsr2l	equ	0xFD9
  6191                           status	equ	0xFD8
  6192                           
  6193 ;; *************** function _i2c_int_handler *****************
  6194 ;; Defined at:
  6195 ;;		line 52 in file "../src/my_i2c.c"
  6196 ;; Parameters:    Size  Location     Type
  6197 ;;		None
  6198 ;; Auto vars:     Size  Location     Type
  6199 ;;  error_buf       3   27[BANK0 ] unsigned char [3]
  6200 ;;  data_read       1   35[BANK0 ] unsigned char 
  6201 ;;  msg_ready       1   34[BANK0 ] unsigned char 
  6202 ;;  msg_to_send     1   33[BANK0 ] unsigned char 
  6203 ;;  i2c_data        1   32[BANK0 ] unsigned char 
  6204 ;;  overrun_erro    1   31[BANK0 ] unsigned char 
  6205 ;;  data_written    1   30[BANK0 ] unsigned char 
  6206 ;; Return value:  Size  Location     Type
  6207 ;;		None               void
  6208 ;; Registers used:
  6209 ;;		wreg, fsr1l, fsr1h, fsr2l, fsr2h, status,2, status,0, prodl, prodh, cstack
  6210 ;; Tracked objects:
  6211 ;;		On entry : 0/0
  6212 ;;		On exit  : 0/0
  6213 ;;		Unchanged: 0/0
  6214 ;; Data sizes:     COMRAM   BANK0   BANK1   BANK2   BANK3   BANK4   BANK5   BANK6   BANK7   BANK8   BANK9  BANK10  BANK1
      +1  BANK12  BANK13  BANK14
  6215 ;;      Params:         0       0       0       0       0       0       0       0       0       0       0       0       
      +0       0       0       0
  6216 ;;      Locals:         0       9       0       0       0       0       0       0       0       0       0       0       
      +0       0       0       0
  6217 ;;      Temps:          0       1       0       0       0       0       0       0       0       0       0       0       
      +0       0       0       0
  6218 ;;      Totals:         0      10       0       0       0       0       0       0       0       0       0       0       
      +0       0       0       0
  6219 ;;Total ram usage:       10 bytes
  6220 ;; Hardware stack levels used:    1
  6221 ;; Hardware stack levels required when called:    3
  6222 ;; This function calls:
  6223 ;;		_ToMainHigh_sendmsg
  6224 ;;		_handle_start
  6225 ;; This function is called by:
  6226 ;;		_InterruptHandlerHigh
  6227 ;; This function uses a non-reentrant model
  6228 ;;
  6229                           
  6230                           	psect	text45
  6231  0000C4                     __ptext45:
  6232                           	opt stack 0
  6233  0000C4                     _i2c_int_handler:
  6234                           	opt stack 17
  6235                           
  6236                           ;my_i2c.c: 53: unsigned char i2c_data;
  6237                           ;my_i2c.c: 54: unsigned char data_read = 0;
  6238                           
  6239                           ;incstack = 0
  6240  0000C4  0E00               	movlw	0
  6241  0000C6  0100               	movlb	0	; () banked
  6242  0000C8  6FBA               	movwf	i2c_int_handler@data_read& (0+255),b
  6243                           
  6244                           ;my_i2c.c: 55: unsigned char data_written = 0;
  6245  0000CA  0E00               	movlw	0
  6246  0000CC  0100               	movlb	0	; () banked
  6247  0000CE  6FB5               	movwf	i2c_int_handler@data_written& (0+255),b
  6248                           
  6249                           ;my_i2c.c: 56: unsigned char msg_ready = 0;
  6250  0000D0  0E00               	movlw	0
  6251  0000D2  0100               	movlb	0	; () banked
  6252  0000D4  6FB9               	movwf	i2c_int_handler@msg_ready& (0+255),b
  6253                           
  6254                           ;my_i2c.c: 57: unsigned char msg_to_send = 0;
  6255  0000D6  0E00               	movlw	0
  6256  0000D8  0100               	movlb	0	; () banked
  6257  0000DA  6FB8               	movwf	i2c_int_handler@msg_to_send& (0+255),b
  6258                           
  6259                           ;my_i2c.c: 58: unsigned char overrun_error = 0;
  6260  0000DC  0E00               	movlw	0
  6261  0000DE  0100               	movlb	0	; () banked
  6262  0000E0  6FB6               	movwf	i2c_int_handler@overrun_error& (0+255),b
  6263                           
  6264                           ; BSR set to: 0
  6265                           ;my_i2c.c: 59: unsigned char error_buf[3];
  6266                           ;my_i2c.c: 62: if (SSPCON1bits.SSPOV == 1) {
  6267  0000E2  ACC6               	btfss	4038,6,c	;volatile
  6268  0000E4  D024               	goto	i2l3183
  6269                           
  6270                           ; BSR set to: 0
  6271                           ;my_i2c.c: 63: SSPCON1bits.SSPOV = 0;
  6272  0000E6  9CC6               	bcf	4038,6,c	;volatile
  6273                           
  6274                           ; BSR set to: 0
  6275                           ;my_i2c.c: 67: ic_ptr->status = 0x4;
  6276  0000E8  0100               	movlb	0	; () banked
  6277  0000EA  EE20 F00D          	lfsr	2,13
  6278  0000EE  0100               	movlb	0	; () banked
  6279  0000F0  51CC               	movf	_ic_ptr& (0+255),w,b
  6280  0000F2  26D9               	addwf	fsr2l,f,c
  6281  0000F4  0100               	movlb	0	; () banked
  6282  0000F6  51CD               	movf	(_ic_ptr+1)& (0+255),w,b
  6283  0000F8  22DA               	addwfc	fsr2h,f,c
  6284  0000FA  0E04               	movlw	4
  6285  0000FC  6EDF               	movwf	indf2,c
  6286                           
  6287                           ; BSR set to: 0
  6288                           ;my_i2c.c: 68: overrun_error = 1;
  6289  0000FE  0E01               	movlw	1
  6290  000100  0100               	movlb	0	; () banked
  6291  000102  6FB6               	movwf	i2c_int_handler@overrun_error& (0+255),b
  6292                           
  6293                           ; BSR set to: 0
  6294                           ;my_i2c.c: 69: ic_ptr->error_count++;
  6295  000104  0100               	movlb	0	; () banked
  6296  000106  EE20 F00F          	lfsr	2,15
  6297  00010A  0100               	movlb	0	; () banked
  6298  00010C  51CC               	movf	_ic_ptr& (0+255),w,b
  6299  00010E  26D9               	addwf	fsr2l,f,c
  6300  000110  0100               	movlb	0	; () banked
  6301  000112  51CD               	movf	(_ic_ptr+1)& (0+255),w,b
  6302  000114  22DA               	addwfc	fsr2h,f,c
  6303  000116  2ADF               	incf	indf2,f,c
  6304                           
  6305                           ; BSR set to: 0
  6306                           ;my_i2c.c: 70: ic_ptr->error_code = 21;
  6307  000118  0100               	movlb	0	; () banked
  6308  00011A  EE20 F00E          	lfsr	2,14
  6309  00011E  0100               	movlb	0	; () banked
  6310  000120  51CC               	movf	_ic_ptr& (0+255),w,b
  6311  000122  26D9               	addwf	fsr2l,f,c
  6312  000124  0100               	movlb	0	; () banked
  6313  000126  51CD               	movf	(_ic_ptr+1)& (0+255),w,b
  6314  000128  22DA               	addwfc	fsr2h,f,c
  6315  00012A  0E15               	movlw	21
  6316  00012C  6EDF               	movwf	indf2,c
  6317  00012E                     i2l3183:
  6318                           
  6319                           ; BSR set to: 0
  6320                           ;my_i2c.c: 71: }
  6321                           ;my_i2c.c: 73: if (SSPSTATbits.BF == 1) {
  6322  00012E  A0C7               	btfss	4039,0,c	;volatile
  6323  000130  D005               	goto	i2l3189
  6324                           
  6325                           ; BSR set to: 0
  6326                           ;my_i2c.c: 74: i2c_data = SSPBUF;
  6327  000132  CFC9 F0B7          	movff	4041,i2c_int_handler@i2c_data	;volatile
  6328                           
  6329                           ; BSR set to: 0
  6330                           ;my_i2c.c: 75: data_read = 1;
  6331  000136  0E01               	movlw	1
  6332  000138  0100               	movlb	0	; () banked
  6333  00013A  6FBA               	movwf	i2c_int_handler@data_read& (0+255),b
  6334  00013C                     i2l3189:
  6335                           
  6336                           ; BSR set to: 0
  6337                           ;my_i2c.c: 76: }
  6338                           ;my_i2c.c: 78: if (!overrun_error) {
  6339  00013C  0100               	movlb	0	; () banked
  6340  00013E  67B6               	tstfsz	i2c_int_handler@overrun_error& (0+255),b
  6341  000140  D19F               	goto	i2l286
  6342  000142  D188               	goto	i2l3277
  6343  000144                     i2l288:
  6344                           
  6345                           ; BSR set to: 0
  6346                           ;my_i2c.c: 81: {
  6347                           ;my_i2c.c: 83: if (SSPSTATbits.S == 1) {
  6348  000144  A6C7               	btfss	4039,3,c	;volatile
  6349  000146  D19C               	goto	i2l286
  6350                           
  6351                           ; BSR set to: 0
  6352                           ;my_i2c.c: 84: handle_start(data_read);
  6353  000148  0100               	movlb	0	; () banked
  6354  00014A  51BA               	movf	i2c_int_handler@data_read& (0+255),w,b
  6355  00014C  ECC5  F006         	call	_handle_start
  6356                           
  6357                           ;my_i2c.c: 86: if (ic_ptr->status == 0x9) {
  6358  000150  0100               	movlb	0	; () banked
  6359  000152  EE20 F00D          	lfsr	2,13
  6360  000156  0100               	movlb	0	; () banked
  6361  000158  51CC               	movf	_ic_ptr& (0+255),w,b
  6362  00015A  26D9               	addwf	fsr2l,f,c
  6363  00015C  0100               	movlb	0	; () banked
  6364  00015E  51CD               	movf	(_ic_ptr+1)& (0+255),w,b
  6365  000160  22DA               	addwfc	fsr2h,f,c
  6366  000162  0E09               	movlw	9
  6367  000164  62DF               	cpfseq	indf2,c
  6368  000166  D18C               	goto	i2l286
  6369                           
  6370                           ; BSR set to: 0
  6371                           ;my_i2c.c: 87: data_read = 0;
  6372  000168  0E00               	movlw	0
  6373  00016A  0100               	movlb	0	; () banked
  6374  00016C  6FBA               	movwf	i2c_int_handler@data_read& (0+255),b
  6375                           
  6376                           ;my_i2c.c: 88: msg_to_send = 1;
  6377  00016E  0E01               	movlw	1
  6378  000170  0100               	movlb	0	; () banked
  6379  000172  6FB8               	movwf	i2c_int_handler@msg_to_send& (0+255),b
  6380  000174  D185               	goto	i2l286
  6381  000176                     i2l292:
  6382                           
  6383                           ; BSR set to: 0
  6384                           ;my_i2c.c: 94: {
  6385                           ;my_i2c.c: 96: if (SSPSTATbits.P == 1) {
  6386  000176  A8C7               	btfss	4039,4,c	;volatile
  6387  000178  D02A               	goto	i2l3209
  6388                           
  6389                           ; BSR set to: 0
  6390                           ;my_i2c.c: 99: ic_ptr->event_count++;
  6391  00017A  0100               	movlb	0	; () banked
  6392  00017C  EE20 F00C          	lfsr	2,12
  6393  000180  0100               	movlb	0	; () banked
  6394  000182  51CC               	movf	_ic_ptr& (0+255),w,b
  6395  000184  26D9               	addwf	fsr2l,f,c
  6396  000186  0100               	movlb	0	; () banked
  6397  000188  51CD               	movf	(_ic_ptr+1)& (0+255),w,b
  6398  00018A  22DA               	addwfc	fsr2h,f,c
  6399  00018C  2ADF               	incf	indf2,f,c
  6400                           
  6401                           ; BSR set to: 0
  6402                           ;my_i2c.c: 100: if (data_read) {
  6403  00018E  0100               	movlb	0	; () banked
  6404  000190  51BA               	movf	i2c_int_handler@data_read& (0+255),w,b
  6405  000192  B4D8               	btfsc	status,2,c
  6406  000194  D154               	goto	L6
  6407                           
  6408                           ; BSR set to: 0
  6409                           ;my_i2c.c: 101: if (SSPSTATbits.D_A == 0) {
  6410  000196  BAC7               	btfsc	4039,5,c	;volatile
  6411  000198  D004               	goto	i2l3207
  6412                           
  6413                           ; BSR set to: 0
  6414                           ;my_i2c.c: 102: msg_ready = 1;
  6415  00019A  0E01               	movlw	1
  6416  00019C  0100               	movlb	0	; () banked
  6417  00019E  6FB9               	movwf	i2c_int_handler@msg_ready& (0+255),b
  6418                           
  6419                           ;my_i2c.c: 103: } else {
  6420  0001A0  D14E               	goto	L6
  6421  0001A2                     i2l3207:
  6422                           
  6423                           ; BSR set to: 0
  6424                           ;my_i2c.c: 104: ic_ptr->error_count++;
  6425  0001A2  0100               	movlb	0	; () banked
  6426  0001A4  EE20 F00F          	lfsr	2,15
  6427  0001A8  0100               	movlb	0	; () banked
  6428  0001AA  51CC               	movf	_ic_ptr& (0+255),w,b
  6429  0001AC  26D9               	addwf	fsr2l,f,c
  6430  0001AE  0100               	movlb	0	; () banked
  6431  0001B0  51CD               	movf	(_ic_ptr+1)& (0+255),w,b
  6432  0001B2  22DA               	addwfc	fsr2h,f,c
  6433  0001B4  2ADF               	incf	indf2,f,c
  6434                           
  6435                           ;my_i2c.c: 105: ic_ptr->error_code = 23;
  6436  0001B6  0100               	movlb	0	; () banked
  6437  0001B8  EE20 F00E          	lfsr	2,14
  6438  0001BC  0100               	movlb	0	; () banked
  6439  0001BE  51CC               	movf	_ic_ptr& (0+255),w,b
  6440  0001C0  26D9               	addwf	fsr2l,f,c
  6441  0001C2  0100               	movlb	0	; () banked
  6442  0001C4  51CD               	movf	(_ic_ptr+1)& (0+255),w,b
  6443  0001C6  22DA               	addwfc	fsr2h,f,c
  6444  0001C8  0E17               	movlw	23
  6445  0001CA  6EDF               	movwf	indf2,c
  6446                           
  6447                           ; BSR set to: 0
  6448  0001CC  D138               	goto	L6
  6449  0001CE                     i2l3209:
  6450                           
  6451                           ; BSR set to: 0
  6452  0001CE  0100               	movlb	0	; () banked
  6453  0001D0  51BA               	movf	i2c_int_handler@data_read& (0+255),w,b
  6454  0001D2  B4D8               	btfsc	status,2,c
  6455  0001D4  D155               	goto	i2l286
  6456                           
  6457                           ; BSR set to: 0
  6458                           ;my_i2c.c: 110: ic_ptr->event_count++;
  6459  0001D6  0100               	movlb	0	; () banked
  6460  0001D8  EE20 F00C          	lfsr	2,12
  6461  0001DC  0100               	movlb	0	; () banked
  6462  0001DE  51CC               	movf	_ic_ptr& (0+255),w,b
  6463  0001E0  26D9               	addwf	fsr2l,f,c
  6464  0001E2  0100               	movlb	0	; () banked
  6465  0001E4  51CD               	movf	(_ic_ptr+1)& (0+255),w,b
  6466  0001E6  22DA               	addwfc	fsr2h,f,c
  6467  0001E8  2ADF               	incf	indf2,f,c
  6468                           
  6469                           ; BSR set to: 0
  6470                           ;my_i2c.c: 111: if (SSPSTATbits.D_A == 0) {
  6471  0001EA  BAC7               	btfsc	4039,5,c	;volatile
  6472  0001EC  D019               	goto	i2l3225
  6473                           
  6474                           ; BSR set to: 0
  6475                           ;my_i2c.c: 112: if (SSPSTATbits.R_W == 0) {
  6476  0001EE  B4C7               	btfsc	4039,2,c	;volatile
  6477  0001F0  D00B               	goto	i2l3219
  6478                           
  6479                           ; BSR set to: 0
  6480                           ;my_i2c.c: 113: ic_ptr->status = 0x6;
  6481  0001F2  0100               	movlb	0	; () banked
  6482  0001F4  EE20 F00D          	lfsr	2,13
  6483  0001F8  0100               	movlb	0	; () banked
  6484  0001FA  51CC               	movf	_ic_ptr& (0+255),w,b
  6485  0001FC  26D9               	addwf	fsr2l,f,c
  6486  0001FE  0100               	movlb	0	; () banked
  6487  000200  51CD               	movf	(_ic_ptr+1)& (0+255),w,b
  6488  000202  22DA               	addwfc	fsr2h,f,c
  6489  000204  0E06               	movlw	6
  6490  000206  D071               	goto	L4
  6491  000208                     i2l3219:
  6492                           
  6493                           ; BSR set to: 0
  6494                           ;my_i2c.c: 115: ic_ptr->status = 0x9;
  6495  000208  0100               	movlb	0	; () banked
  6496  00020A  EE20 F00D          	lfsr	2,13
  6497  00020E  0100               	movlb	0	; () banked
  6498  000210  51CC               	movf	_ic_ptr& (0+255),w,b
  6499  000212  26D9               	addwf	fsr2l,f,c
  6500  000214  0100               	movlb	0	; () banked
  6501  000216  51CD               	movf	(_ic_ptr+1)& (0+255),w,b
  6502  000218  22DA               	addwfc	fsr2h,f,c
  6503  00021A  0E09               	movlw	9
  6504  00021C  6EDF               	movwf	indf2,c
  6505  00021E  D108               	goto	L3
  6506  000220                     i2l3225:
  6507                           
  6508                           ; BSR set to: 0
  6509                           ;my_i2c.c: 121: ic_ptr->error_count++;
  6510  000220  0100               	movlb	0	; () banked
  6511  000222  EE20 F00F          	lfsr	2,15
  6512  000226  0100               	movlb	0	; () banked
  6513  000228  51CC               	movf	_ic_ptr& (0+255),w,b
  6514  00022A  26D9               	addwf	fsr2l,f,c
  6515  00022C  0100               	movlb	0	; () banked
  6516  00022E  51CD               	movf	(_ic_ptr+1)& (0+255),w,b
  6517  000230  22DA               	addwfc	fsr2h,f,c
  6518  000232  2ADF               	incf	indf2,f,c
  6519                           
  6520                           ;my_i2c.c: 122: ic_ptr->status = 0x4;
  6521  000234  0100               	movlb	0	; () banked
  6522  000236  EE20 F00D          	lfsr	2,13
  6523  00023A  0100               	movlb	0	; () banked
  6524  00023C  51CC               	movf	_ic_ptr& (0+255),w,b
  6525  00023E  26D9               	addwf	fsr2l,f,c
  6526  000240  0100               	movlb	0	; () banked
  6527  000242  51CD               	movf	(_ic_ptr+1)& (0+255),w,b
  6528  000244  22DA               	addwfc	fsr2h,f,c
  6529  000246  0E04               	movlw	4
  6530  000248  6EDF               	movwf	indf2,c
  6531                           
  6532                           ;my_i2c.c: 123: ic_ptr->error_code = 23;
  6533  00024A  0100               	movlb	0	; () banked
  6534  00024C  EE20 F00E          	lfsr	2,14
  6535  000250  0100               	movlb	0	; () banked
  6536  000252  51CC               	movf	_ic_ptr& (0+255),w,b
  6537  000254  26D9               	addwf	fsr2l,f,c
  6538  000256  0100               	movlb	0	; () banked
  6539  000258  51CD               	movf	(_ic_ptr+1)& (0+255),w,b
  6540  00025A  22DA               	addwfc	fsr2h,f,c
  6541  00025C  0E17               	movlw	23
  6542  00025E  D045               	goto	L4
  6543  000260                     i2l3227:
  6544                           
  6545                           ; BSR set to: 0
  6546                           ;my_i2c.c: 129: {
  6547                           ;my_i2c.c: 130: if (ic_ptr->outbufind < ic_ptr->outbuflen) {
  6548  000260  0100               	movlb	0	; () banked
  6549  000262  EE20 F01B          	lfsr	2,27
  6550  000266  0100               	movlb	0	; () banked
  6551  000268  51CC               	movf	_ic_ptr& (0+255),w,b
  6552  00026A  26D9               	addwf	fsr2l,f,c
  6553  00026C  0100               	movlb	0	; () banked
  6554  00026E  51CD               	movf	(_ic_ptr+1)& (0+255),w,b
  6555  000270  22DA               	addwfc	fsr2h,f,c
  6556  000272  50DF               	movf	indf2,w,c
  6557  000274  0100               	movlb	0	; () banked
  6558  000276  6FB1               	movwf	??_i2c_int_handler& (0+255),b
  6559  000278  0100               	movlb	0	; () banked
  6560  00027A  EE20 F01A          	lfsr	2,26
  6561  00027E  0100               	movlb	0	; () banked
  6562  000280  51CC               	movf	_ic_ptr& (0+255),w,b
  6563  000282  26D9               	addwf	fsr2l,f,c
  6564  000284  0100               	movlb	0	; () banked
  6565  000286  51CD               	movf	(_ic_ptr+1)& (0+255),w,b
  6566  000288  22DA               	addwfc	fsr2h,f,c
  6567  00028A  50DF               	movf	indf2,w,c
  6568  00028C  0100               	movlb	0	; () banked
  6569  00028E  5DB1               	subwf	??_i2c_int_handler& (0+255),w,b
  6570  000290  B0D8               	btfsc	status,0,c
  6571  000292  D0D5               	goto	L6
  6572                           
  6573                           ; BSR set to: 0
  6574                           ;my_i2c.c: 131: SSPBUF = ic_ptr->outbuffer[ic_ptr->outbufind];
  6575  000294  0100               	movlb	0	; () banked
  6576  000296  EE20 F01B          	lfsr	2,27
  6577  00029A  0100               	movlb	0	; () banked
  6578  00029C  51CC               	movf	_ic_ptr& (0+255),w,b
  6579  00029E  26D9               	addwf	fsr2l,f,c
  6580  0002A0  0100               	movlb	0	; () banked
  6581  0002A2  51CD               	movf	(_ic_ptr+1)& (0+255),w,b
  6582  0002A4  22DA               	addwfc	fsr2h,f,c
  6583  0002A6  50DF               	movf	indf2,w,c
  6584  0002A8  0100               	movlb	0	; () banked
  6585  0002AA  6FB1               	movwf	??_i2c_int_handler& (0+255),b
  6586  0002AC  0100               	movlb	0	; () banked
  6587  0002AE  51B1               	movf	??_i2c_int_handler& (0+255),w,b
  6588  0002B0  0D01               	mullw	1
  6589  0002B2  0E10               	movlw	16
  6590  0002B4  26F3               	addwf	prodl,f,c
  6591  0002B6  0E00               	movlw	0
  6592  0002B8  22F4               	addwfc	prodh,f,c
  6593  0002BA  50F3               	movf	prodl,w,c
  6594  0002BC  0100               	movlb	0	; () banked
  6595  0002BE  25CC               	addwf	_ic_ptr& (0+255),w,b
  6596  0002C0  6ED9               	movwf	fsr2l,c
  6597  0002C2  50F4               	movf	prodh,w,c
  6598  0002C4  0100               	movlb	0	; () banked
  6599  0002C6  21CD               	addwfc	(_ic_ptr+1)& (0+255),w,b
  6600  0002C8  6EDA               	movwf	fsr2h,c
  6601  0002CA  50DF               	movf	indf2,w,c
  6602  0002CC  6EC9               	movwf	4041,c	;volatile
  6603                           
  6604                           ; BSR set to: 0
  6605                           ;my_i2c.c: 132: ic_ptr->outbufind++;
  6606  0002CE  0100               	movlb	0	; () banked
  6607  0002D0  EE20 F01B          	lfsr	2,27
  6608  0002D4  0100               	movlb	0	; () banked
  6609  0002D6  51CC               	movf	_ic_ptr& (0+255),w,b
  6610  0002D8  26D9               	addwf	fsr2l,f,c
  6611  0002DA  0100               	movlb	0	; () banked
  6612  0002DC  51CD               	movf	(_ic_ptr+1)& (0+255),w,b
  6613  0002DE  22DA               	addwfc	fsr2h,f,c
  6614  0002E0  2ADF               	incf	indf2,f,c
  6615                           
  6616                           ; BSR set to: 0
  6617                           ;my_i2c.c: 133: data_written = 1;
  6618  0002E2  0E01               	movlw	1
  6619  0002E4  0100               	movlb	0	; () banked
  6620  0002E6  6FB5               	movwf	i2c_int_handler@data_written& (0+255),b
  6621                           
  6622                           ;my_i2c.c: 134: } else {
  6623  0002E8  D0CB               	goto	i2l286
  6624  0002EA                     L4:
  6625  0002EA  6EDF               	movwf	indf2,c
  6626  0002EC  D0C9               	goto	i2l286
  6627  0002EE                     i2l306:
  6628                           
  6629                           ; BSR set to: 0
  6630                           ;my_i2c.c: 141: {
  6631                           ;my_i2c.c: 143: if (SSPSTATbits.P == 1) {
  6632  0002EE  A8C7               	btfss	4039,4,c	;volatile
  6633  0002F0  D05A               	goto	i2l3255
  6634                           
  6635                           ; BSR set to: 0
  6636                           ;my_i2c.c: 145: ic_ptr->event_count++;
  6637  0002F2  0100               	movlb	0	; () banked
  6638  0002F4  EE20 F00C          	lfsr	2,12
  6639  0002F8  0100               	movlb	0	; () banked
  6640  0002FA  51CC               	movf	_ic_ptr& (0+255),w,b
  6641  0002FC  26D9               	addwf	fsr2l,f,c
  6642  0002FE  0100               	movlb	0	; () banked
  6643  000300  51CD               	movf	(_ic_ptr+1)& (0+255),w,b
  6644  000302  22DA               	addwfc	fsr2h,f,c
  6645  000304  2ADF               	incf	indf2,f,c
  6646                           
  6647                           ; BSR set to: 0
  6648                           ;my_i2c.c: 146: if (data_read) {
  6649  000306  0100               	movlb	0	; () banked
  6650  000308  51BA               	movf	i2c_int_handler@data_read& (0+255),w,b
  6651  00030A  B4D8               	btfsc	status,2,c
  6652  00030C  D048               	goto	i2l3251
  6653                           
  6654                           ; BSR set to: 0
  6655                           ;my_i2c.c: 147: if (SSPSTATbits.D_A == 1) {
  6656  00030E  AAC7               	btfss	4039,5,c	;volatile
  6657  000310  D025               	goto	i2l3249
  6658                           
  6659                           ; BSR set to: 0
  6660                           ;my_i2c.c: 148: ic_ptr->buffer[ic_ptr->buflen] = i2c_data;
  6661  000312  0100               	movlb	0	; () banked
  6662  000314  EE20 F00A          	lfsr	2,10
  6663  000318  0100               	movlb	0	; () banked
  6664  00031A  51CC               	movf	_ic_ptr& (0+255),w,b
  6665  00031C  26D9               	addwf	fsr2l,f,c
  6666  00031E  0100               	movlb	0	; () banked
  6667  000320  51CD               	movf	(_ic_ptr+1)& (0+255),w,b
  6668  000322  22DA               	addwfc	fsr2h,f,c
  6669  000324  50DF               	movf	indf2,w,c
  6670  000326  0100               	movlb	0	; () banked
  6671  000328  6FB1               	movwf	??_i2c_int_handler& (0+255),b
  6672  00032A  0100               	movlb	0	; () banked
  6673  00032C  51B1               	movf	??_i2c_int_handler& (0+255),w,b
  6674  00032E  0D01               	mullw	1
  6675  000330  50F3               	movf	prodl,w,c
  6676  000332  0100               	movlb	0	; () banked
  6677  000334  25CC               	addwf	_ic_ptr& (0+255),w,b
  6678  000336  6ED9               	movwf	fsr2l,c
  6679  000338  50F4               	movf	prodh,w,c
  6680  00033A  0100               	movlb	0	; () banked
  6681  00033C  21CD               	addwfc	(_ic_ptr+1)& (0+255),w,b
  6682  00033E  6EDA               	movwf	fsr2h,c
  6683  000340  0100               	movlb	0	; () banked
  6684  000342  C0B7  FFDF         	movff	i2c_int_handler@i2c_data,indf2
  6685                           
  6686                           ; BSR set to: 0
  6687                           ;my_i2c.c: 149: ic_ptr->buflen++;
  6688  000346  0100               	movlb	0	; () banked
  6689  000348  EE20 F00A          	lfsr	2,10
  6690  00034C  0100               	movlb	0	; () banked
  6691  00034E  51CC               	movf	_ic_ptr& (0+255),w,b
  6692  000350  26D9               	addwf	fsr2l,f,c
  6693  000352  0100               	movlb	0	; () banked
  6694  000354  51CD               	movf	(_ic_ptr+1)& (0+255),w,b
  6695  000356  22DA               	addwfc	fsr2h,f,c
  6696  000358  2ADF               	incf	indf2,f,c
  6697  00035A  D021               	goto	i2l3251
  6698  00035C                     i2l3249:
  6699                           
  6700                           ; BSR set to: 0
  6701                           ;my_i2c.c: 152: ic_ptr->error_count++;
  6702  00035C  0100               	movlb	0	; () banked
  6703  00035E  EE20 F00F          	lfsr	2,15
  6704  000362  0100               	movlb	0	; () banked
  6705  000364  51CC               	movf	_ic_ptr& (0+255),w,b
  6706  000366  26D9               	addwf	fsr2l,f,c
  6707  000368  0100               	movlb	0	; () banked
  6708  00036A  51CD               	movf	(_ic_ptr+1)& (0+255),w,b
  6709  00036C  22DA               	addwfc	fsr2h,f,c
  6710  00036E  2ADF               	incf	indf2,f,c
  6711                           
  6712                           ;my_i2c.c: 153: ic_ptr->error_code = 23;
  6713  000370  0100               	movlb	0	; () banked
  6714  000372  EE20 F00E          	lfsr	2,14
  6715  000376  0100               	movlb	0	; () banked
  6716  000378  51CC               	movf	_ic_ptr& (0+255),w,b
  6717  00037A  26D9               	addwf	fsr2l,f,c
  6718  00037C  0100               	movlb	0	; () banked
  6719  00037E  51CD               	movf	(_ic_ptr+1)& (0+255),w,b
  6720  000380  22DA               	addwfc	fsr2h,f,c
  6721  000382  0E17               	movlw	23
  6722  000384  6EDF               	movwf	indf2,c
  6723                           
  6724                           ;my_i2c.c: 154: ic_ptr->status = 0x4;
  6725  000386  0100               	movlb	0	; () banked
  6726  000388  EE20 F00D          	lfsr	2,13
  6727  00038C  0100               	movlb	0	; () banked
  6728  00038E  51CC               	movf	_ic_ptr& (0+255),w,b
  6729  000390  26D9               	addwf	fsr2l,f,c
  6730  000392  0100               	movlb	0	; () banked
  6731  000394  51CD               	movf	(_ic_ptr+1)& (0+255),w,b
  6732  000396  22DA               	addwfc	fsr2h,f,c
  6733  000398  0E04               	movlw	4
  6734  00039A  6EDF               	movwf	indf2,c
  6735  00039C  D050               	goto	L6
  6736  00039E                     i2l3251:
  6737                           
  6738                           ; BSR set to: 0
  6739                           ;my_i2c.c: 157: msg_ready = 1;
  6740  00039E  0E01               	movlw	1
  6741  0003A0  0100               	movlb	0	; () banked
  6742  0003A2  6FB9               	movwf	i2c_int_handler@msg_ready& (0+255),b
  6743                           
  6744                           ; BSR set to: 0
  6745  0003A4  D04C               	goto	L6
  6746  0003A6                     i2l3255:
  6747                           
  6748                           ; BSR set to: 0
  6749  0003A6  0100               	movlb	0	; () banked
  6750  0003A8  51BA               	movf	i2c_int_handler@data_read& (0+255),w,b
  6751  0003AA  B4D8               	btfsc	status,2,c
  6752  0003AC  D069               	goto	i2l286
  6753                           
  6754                           ; BSR set to: 0
  6755                           ;my_i2c.c: 161: ic_ptr->event_count++;
  6756  0003AE  0100               	movlb	0	; () banked
  6757  0003B0  EE20 F00C          	lfsr	2,12
  6758  0003B4  0100               	movlb	0	; () banked
  6759  0003B6  51CC               	movf	_ic_ptr& (0+255),w,b
  6760  0003B8  26D9               	addwf	fsr2l,f,c
  6761  0003BA  0100               	movlb	0	; () banked
  6762  0003BC  51CD               	movf	(_ic_ptr+1)& (0+255),w,b
  6763  0003BE  22DA               	addwfc	fsr2h,f,c
  6764  0003C0  2ADF               	incf	indf2,f,c
  6765                           
  6766                           ; BSR set to: 0
  6767                           ;my_i2c.c: 162: if (SSPSTATbits.D_A == 1) {
  6768  0003C2  AAC7               	btfss	4039,5,c	;volatile
  6769  0003C4  D025               	goto	i2l314
  6770                           
  6771                           ; BSR set to: 0
  6772                           ;my_i2c.c: 163: ic_ptr->buffer[ic_ptr->buflen] = i2c_data;
  6773  0003C6  0100               	movlb	0	; () banked
  6774  0003C8  EE20 F00A          	lfsr	2,10
  6775  0003CC  0100               	movlb	0	; () banked
  6776  0003CE  51CC               	movf	_ic_ptr& (0+255),w,b
  6777  0003D0  26D9               	addwf	fsr2l,f,c
  6778  0003D2  0100               	movlb	0	; () banked
  6779  0003D4  51CD               	movf	(_ic_ptr+1)& (0+255),w,b
  6780  0003D6  22DA               	addwfc	fsr2h,f,c
  6781  0003D8  50DF               	movf	indf2,w,c
  6782  0003DA  0100               	movlb	0	; () banked
  6783  0003DC  6FB1               	movwf	??_i2c_int_handler& (0+255),b
  6784  0003DE  0100               	movlb	0	; () banked
  6785  0003E0  51B1               	movf	??_i2c_int_handler& (0+255),w,b
  6786  0003E2  0D01               	mullw	1
  6787  0003E4  50F3               	movf	prodl,w,c
  6788  0003E6  0100               	movlb	0	; () banked
  6789  0003E8  25CC               	addwf	_ic_ptr& (0+255),w,b
  6790  0003EA  6ED9               	movwf	fsr2l,c
  6791  0003EC  50F4               	movf	prodh,w,c
  6792  0003EE  0100               	movlb	0	; () banked
  6793  0003F0  21CD               	addwfc	(_ic_ptr+1)& (0+255),w,b
  6794  0003F2  6EDA               	movwf	fsr2h,c
  6795  0003F4  0100               	movlb	0	; () banked
  6796  0003F6  C0B7  FFDF         	movff	i2c_int_handler@i2c_data,indf2
  6797                           
  6798                           ; BSR set to: 0
  6799                           ;my_i2c.c: 164: ic_ptr->buflen++;
  6800  0003FA  0100               	movlb	0	; () banked
  6801  0003FC  EE20 F00A          	lfsr	2,10
  6802  000400  0100               	movlb	0	; () banked
  6803  000402  51CC               	movf	_ic_ptr& (0+255),w,b
  6804  000404  26D9               	addwf	fsr2l,f,c
  6805  000406  0100               	movlb	0	; () banked
  6806  000408  51CD               	movf	(_ic_ptr+1)& (0+255),w,b
  6807  00040A  22DA               	addwfc	fsr2h,f,c
  6808  00040C  2ADF               	incf	indf2,f,c
  6809                           
  6810                           ;my_i2c.c: 165: } else {
  6811  00040E  D038               	goto	i2l286
  6812  000410                     i2l314:
  6813                           
  6814                           ; BSR set to: 0
  6815                           ;my_i2c.c: 166: if (SSPSTATbits.R_W == 1) {
  6816  000410  A4C7               	btfss	4039,2,c	;volatile
  6817  000412  D6C7               	goto	i2l3207
  6818                           
  6819                           ; BSR set to: 0
  6820                           ;my_i2c.c: 167: ic_ptr->status = 0x9;
  6821  000414  0100               	movlb	0	; () banked
  6822  000416  EE20 F00D          	lfsr	2,13
  6823  00041A  0100               	movlb	0	; () banked
  6824  00041C  51CC               	movf	_ic_ptr& (0+255),w,b
  6825  00041E  26D9               	addwf	fsr2l,f,c
  6826  000420  0100               	movlb	0	; () banked
  6827  000422  51CD               	movf	(_ic_ptr+1)& (0+255),w,b
  6828  000424  22DA               	addwfc	fsr2h,f,c
  6829  000426  0E09               	movlw	9
  6830  000428  6EDF               	movwf	indf2,c
  6831                           
  6832                           ; BSR set to: 0
  6833                           ;my_i2c.c: 168: msg_ready = 1;
  6834  00042A  0E01               	movlw	1
  6835  00042C  0100               	movlb	0	; () banked
  6836  00042E  6FB9               	movwf	i2c_int_handler@msg_ready& (0+255),b
  6837  000430                     L3:
  6838                           
  6839                           ; BSR set to: 0
  6840                           ;my_i2c.c: 169: msg_to_send = 1;
  6841  000430  0E01               	movlw	1
  6842  000432  0100               	movlb	0	; () banked
  6843  000434  6FB8               	movwf	i2c_int_handler@msg_to_send& (0+255),b
  6844                           
  6845                           ; BSR set to: 0
  6846                           ;my_i2c.c: 171: data_read = 0;
  6847  000436  0E00               	movlw	0
  6848  000438  0100               	movlb	0	; () banked
  6849  00043A  6FBA               	movwf	i2c_int_handler@data_read& (0+255),b
  6850                           
  6851                           ;my_i2c.c: 172: } else {
  6852  00043C  D021               	goto	i2l286
  6853  00043E                     L6:
  6854                           
  6855                           ;my_i2c.c: 175: ic_ptr->status = 0x4;
  6856  00043E  0100               	movlb	0	; () banked
  6857  000440  EE20 F00D          	lfsr	2,13
  6858  000444  0100               	movlb	0	; () banked
  6859  000446  51CC               	movf	_ic_ptr& (0+255),w,b
  6860  000448  26D9               	addwf	fsr2l,f,c
  6861  00044A  0100               	movlb	0	; () banked
  6862  00044C  51CD               	movf	(_ic_ptr+1)& (0+255),w,b
  6863  00044E  22DA               	addwfc	fsr2h,f,c
  6864  000450  0E04               	movlw	4
  6865  000452  D74B               	goto	L4
  6866  000454                     i2l3277:
  6867                           
  6868                           ; BSR set to: 0
  6869  000454  0100               	movlb	0	; () banked
  6870  000456  EE20 F00D          	lfsr	2,13
  6871  00045A  0100               	movlb	0	; () banked
  6872  00045C  51CC               	movf	_ic_ptr& (0+255),w,b
  6873  00045E  26D9               	addwf	fsr2l,f,c
  6874  000460  0100               	movlb	0	; () banked
  6875  000462  51CD               	movf	(_ic_ptr+1)& (0+255),w,b
  6876  000464  22DA               	addwfc	fsr2h,f,c
  6877  000466  50DF               	movf	indf2,w,c
  6878                           
  6879                           ; Switch size 1, requested type "space"
  6880                           ; Number of cases is 4, Range of values is 4 to 9
  6881                           ; switch strategies available:
  6882                           ; Name         Instructions Cycles
  6883                           ; simple_byte           13     7 (average)
  6884                           ;	Chosen strategy is simple_byte
  6885  000468  0A04               	xorlw	4	; case 4
  6886  00046A  B4D8               	btfsc	status,2,c
  6887  00046C  D66B               	goto	i2l288
  6888  00046E  0A01               	xorlw	1	; case 5
  6889  000470  B4D8               	btfsc	status,2,c
  6890  000472  D681               	goto	i2l292
  6891  000474  0A03               	xorlw	3	; case 6
  6892  000476  B4D8               	btfsc	status,2,c
  6893  000478  D73A               	goto	i2l306
  6894  00047A  0A0F               	xorlw	15	; case 9
  6895  00047C  B4D8               	btfsc	status,2,c
  6896  00047E  D6F0               	goto	i2l3227
  6897  000480                     i2l286:
  6898                           
  6899                           ; BSR set to: 0
  6900                           ;my_i2c.c: 182: }
  6901                           ;my_i2c.c: 185: if (data_read || data_written) {
  6902  000480  0100               	movlb	0	; () banked
  6903  000482  67BA               	tstfsz	i2c_int_handler@data_read& (0+255),b
  6904  000484  D004               	goto	i2l320
  6905                           
  6906                           ; BSR set to: 0
  6907  000486  0100               	movlb	0	; () banked
  6908  000488  51B5               	movf	i2c_int_handler@data_written& (0+255),w,b
  6909  00048A  B4D8               	btfsc	status,2,c
  6910  00048C  D002               	goto	i2l3283
  6911  00048E                     i2l320:
  6912                           
  6913                           ; BSR set to: 0
  6914                           ;my_i2c.c: 187: if (SSPCON1bits.CKP == 0) {
  6915  00048E  A8C6               	btfss	4038,4,c	;volatile
  6916                           
  6917                           ; BSR set to: 0
  6918                           ;my_i2c.c: 188: SSPCON1bits.CKP = 1;
  6919  000490  88C6               	bsf	4038,4,c	;volatile
  6920  000492                     i2l3283:
  6921                           
  6922                           ; BSR set to: 0
  6923                           ;my_i2c.c: 189: }
  6924                           ;my_i2c.c: 190: }
  6925                           ;my_i2c.c: 193: if ((ic_ptr->buflen > 10 - 2) && (!msg_ready)) {
  6926  000492  0100               	movlb	0	; () banked
  6927  000494  EE20 F00A          	lfsr	2,10
  6928  000498  0100               	movlb	0	; () banked
  6929  00049A  51CC               	movf	_ic_ptr& (0+255),w,b
  6930  00049C  26D9               	addwf	fsr2l,f,c
  6931  00049E  0100               	movlb	0	; () banked
  6932  0004A0  51CD               	movf	(_ic_ptr+1)& (0+255),w,b
  6933  0004A2  22DA               	addwfc	fsr2h,f,c
  6934  0004A4  0E08               	movlw	8
  6935  0004A6  64DF               	cpfsgt	indf2,c
  6936  0004A8  D023               	goto	i2l3289
  6937                           
  6938                           ; BSR set to: 0
  6939  0004AA  0100               	movlb	0	; () banked
  6940  0004AC  67B9               	tstfsz	i2c_int_handler@msg_ready& (0+255),b
  6941  0004AE  D020               	goto	i2l3289
  6942                           
  6943                           ; BSR set to: 0
  6944                           ;my_i2c.c: 194: ic_ptr->status = 0x4;
  6945  0004B0  0100               	movlb	0	; () banked
  6946  0004B2  EE20 F00D          	lfsr	2,13
  6947  0004B6  0100               	movlb	0	; () banked
  6948  0004B8  51CC               	movf	_ic_ptr& (0+255),w,b
  6949  0004BA  26D9               	addwf	fsr2l,f,c
  6950  0004BC  0100               	movlb	0	; () banked
  6951  0004BE  51CD               	movf	(_ic_ptr+1)& (0+255),w,b
  6952  0004C0  22DA               	addwfc	fsr2h,f,c
  6953  0004C2  0E04               	movlw	4
  6954  0004C4  6EDF               	movwf	indf2,c
  6955                           
  6956                           ;my_i2c.c: 195: ic_ptr->error_count++;
  6957  0004C6  0100               	movlb	0	; () banked
  6958  0004C8  EE20 F00F          	lfsr	2,15
  6959  0004CC  0100               	movlb	0	; () banked
  6960  0004CE  51CC               	movf	_ic_ptr& (0+255),w,b
  6961  0004D0  26D9               	addwf	fsr2l,f,c
  6962  0004D2  0100               	movlb	0	; () banked
  6963  0004D4  51CD               	movf	(_ic_ptr+1)& (0+255),w,b
  6964  0004D6  22DA               	addwfc	fsr2h,f,c
  6965  0004D8  2ADF               	incf	indf2,f,c
  6966                           
  6967                           ;my_i2c.c: 196: ic_ptr->error_code = 24;
  6968  0004DA  0100               	movlb	0	; () banked
  6969  0004DC  EE20 F00E          	lfsr	2,14
  6970  0004E0  0100               	movlb	0	; () banked
  6971  0004E2  51CC               	movf	_ic_ptr& (0+255),w,b
  6972  0004E4  26D9               	addwf	fsr2l,f,c
  6973  0004E6  0100               	movlb	0	; () banked
  6974  0004E8  51CD               	movf	(_ic_ptr+1)& (0+255),w,b
  6975  0004EA  22DA               	addwfc	fsr2h,f,c
  6976  0004EC  0E18               	movlw	24
  6977  0004EE  6EDF               	movwf	indf2,c
  6978  0004F0                     i2l3289:
  6979                           
  6980                           ; BSR set to: 0
  6981                           ;my_i2c.c: 197: }
  6982                           ;my_i2c.c: 199: if (msg_ready) {
  6983  0004F0  0100               	movlb	0	; () banked
  6984  0004F2  51B9               	movf	i2c_int_handler@msg_ready& (0+255),w,b
  6985  0004F4  B4D8               	btfsc	status,2,c
  6986  0004F6  D03F               	goto	i2l3297
  6987                           
  6988                           ; BSR set to: 0
  6989                           ;my_i2c.c: 200: ic_ptr->buffer[ic_ptr->buflen] = ic_ptr->event_count;
  6990  0004F8  0100               	movlb	0	; () banked
  6991  0004FA  EE20 F00C          	lfsr	2,12
  6992  0004FE  0100               	movlb	0	; () banked
  6993  000500  51CC               	movf	_ic_ptr& (0+255),w,b
  6994  000502  26D9               	addwf	fsr2l,f,c
  6995  000504  0100               	movlb	0	; () banked
  6996  000506  51CD               	movf	(_ic_ptr+1)& (0+255),w,b
  6997  000508  22DA               	addwfc	fsr2h,f,c
  6998  00050A  0100               	movlb	0	; () banked
  6999  00050C  EE10 F00A          	lfsr	1,10
  7000  000510  0100               	movlb	0	; () banked
  7001  000512  51CC               	movf	_ic_ptr& (0+255),w,b
  7002  000514  26E1               	addwf	fsr1l,f,c
  7003  000516  0100               	movlb	0	; () banked
  7004  000518  51CD               	movf	(_ic_ptr+1)& (0+255),w,b
  7005  00051A  22E2               	addwfc	fsr1h,f,c
  7006  00051C  50E7               	movf	indf1,w,c
  7007  00051E  0100               	movlb	0	; () banked
  7008  000520  6FB1               	movwf	??_i2c_int_handler& (0+255),b
  7009  000522  0100               	movlb	0	; () banked
  7010  000524  51B1               	movf	??_i2c_int_handler& (0+255),w,b
  7011  000526  0D01               	mullw	1
  7012  000528  50F3               	movf	prodl,w,c
  7013  00052A  0100               	movlb	0	; () banked
  7014  00052C  25CC               	addwf	_ic_ptr& (0+255),w,b
  7015  00052E  6EE1               	movwf	fsr1l,c
  7016  000530  50F4               	movf	prodh,w,c
  7017  000532  0100               	movlb	0	; () banked
  7018  000534  21CD               	addwfc	(_ic_ptr+1)& (0+255),w,b
  7019  000536  6EE2               	movwf	fsr1h,c
  7020  000538  CFDF FFE7          	movff	indf2,indf1
  7021                           
  7022                           ; BSR set to: 0
  7023                           ;my_i2c.c: 201: ToMainHigh_sendmsg(ic_ptr->buflen + 1, 23, (void *) ic_ptr->buffer);
  7024  00053C  0E17               	movlw	23
  7025  00053E  0100               	movlb	0	; () banked
  7026  000540  6FAD               	movwf	ToMainHigh_sendmsg@msgtype& (0+255),b
  7027  000542  0100               	movlb	0	; () banked
  7028  000544  C0CD  F0AF         	movff	_ic_ptr+1,ToMainHigh_sendmsg@data+1
  7029  000548  0100               	movlb	0	; () banked
  7030  00054A  C0CC  F0AE         	movff	_ic_ptr,ToMainHigh_sendmsg@data
  7031  00054E  0100               	movlb	0	; () banked
  7032  000550  EE20 F00A          	lfsr	2,10
  7033  000554  0100               	movlb	0	; () banked
  7034  000556  51CC               	movf	_ic_ptr& (0+255),w,b
  7035  000558  26D9               	addwf	fsr2l,f,c
  7036  00055A  0100               	movlb	0	; () banked
  7037  00055C  51CD               	movf	(_ic_ptr+1)& (0+255),w,b
  7038  00055E  22DA               	addwfc	fsr2h,f,c
  7039  000560  50DF               	movf	indf2,w,c
  7040  000562  0100               	movlb	0	; () banked
  7041  000564  6FB1               	movwf	??_i2c_int_handler& (0+255),b
  7042  000566  0100               	movlb	0	; () banked
  7043  000568  29B1               	incf	??_i2c_int_handler& (0+255),w,b
  7044  00056A  EC8F  F00B         	call	_ToMainHigh_sendmsg
  7045                           
  7046                           ;my_i2c.c: 202: ic_ptr->buflen = 0;
  7047  00056E  0100               	movlb	0	; () banked
  7048  000570  EE20 F00A          	lfsr	2,10
  7049  000574  D041               	goto	L5
  7050  000576                     i2l3297:
  7051                           
  7052                           ; BSR set to: 0
  7053  000576  0100               	movlb	0	; () banked
  7054  000578  EE20 F00F          	lfsr	2,15
  7055  00057C  0100               	movlb	0	; () banked
  7056  00057E  51CC               	movf	_ic_ptr& (0+255),w,b
  7057  000580  26D9               	addwf	fsr2l,f,c
  7058  000582  0100               	movlb	0	; () banked
  7059  000584  51CD               	movf	(_ic_ptr+1)& (0+255),w,b
  7060  000586  22DA               	addwfc	fsr2h,f,c
  7061  000588  0E13               	movlw	19
  7062  00058A  64DF               	cpfsgt	indf2,c
  7063  00058C  D03D               	goto	i2l3305
  7064                           
  7065                           ; BSR set to: 0
  7066                           ;my_i2c.c: 204: error_buf[0] = ic_ptr->error_count;
  7067  00058E  0100               	movlb	0	; () banked
  7068  000590  EE20 F00F          	lfsr	2,15
  7069  000594  0100               	movlb	0	; () banked
  7070  000596  51CC               	movf	_ic_ptr& (0+255),w,b
  7071  000598  26D9               	addwf	fsr2l,f,c
  7072  00059A  0100               	movlb	0	; () banked
  7073  00059C  51CD               	movf	(_ic_ptr+1)& (0+255),w,b
  7074  00059E  22DA               	addwfc	fsr2h,f,c
  7075  0005A0  50DF               	movf	indf2,w,c
  7076  0005A2  0100               	movlb	0	; () banked
  7077  0005A4  6FB2               	movwf	i2c_int_handler@error_buf& (0+255),b
  7078                           
  7079                           ;my_i2c.c: 205: error_buf[1] = ic_ptr->error_code;
  7080  0005A6  0100               	movlb	0	; () banked
  7081  0005A8  EE20 F00E          	lfsr	2,14
  7082  0005AC  0100               	movlb	0	; () banked
  7083  0005AE  51CC               	movf	_ic_ptr& (0+255),w,b
  7084  0005B0  26D9               	addwf	fsr2l,f,c
  7085  0005B2  0100               	movlb	0	; () banked
  7086  0005B4  51CD               	movf	(_ic_ptr+1)& (0+255),w,b
  7087  0005B6  22DA               	addwfc	fsr2h,f,c
  7088  0005B8  50DF               	movf	indf2,w,c
  7089  0005BA  0100               	movlb	0	; () banked
  7090  0005BC  6FB3               	movwf	(i2c_int_handler@error_buf+1)& (0+255),b
  7091                           
  7092                           ;my_i2c.c: 206: error_buf[2] = ic_ptr->event_count;
  7093  0005BE  0100               	movlb	0	; () banked
  7094  0005C0  EE20 F00C          	lfsr	2,12
  7095  0005C4  0100               	movlb	0	; () banked
  7096  0005C6  51CC               	movf	_ic_ptr& (0+255),w,b
  7097  0005C8  26D9               	addwf	fsr2l,f,c
  7098  0005CA  0100               	movlb	0	; () banked
  7099  0005CC  51CD               	movf	(_ic_ptr+1)& (0+255),w,b
  7100  0005CE  22DA               	addwfc	fsr2h,f,c
  7101  0005D0  50DF               	movf	indf2,w,c
  7102  0005D2  0100               	movlb	0	; () banked
  7103  0005D4  6FB4               	movwf	(i2c_int_handler@error_buf+2)& (0+255),b
  7104                           
  7105                           ; BSR set to: 0
  7106                           ;my_i2c.c: 207: ToMainHigh_sendmsg(sizeof (unsigned char) *3, 21, (void *) error_buf);
  7107  0005D6  0E15               	movlw	21
  7108  0005D8  0100               	movlb	0	; () banked
  7109  0005DA  6FAD               	movwf	ToMainHigh_sendmsg@msgtype& (0+255),b
  7110  0005DC  0100               	movlb	0	; () banked
  7111  0005DE  0E00               	movlw	high i2c_int_handler@error_buf
  7112  0005E0  0100               	movlb	0	; () banked
  7113  0005E2  6FAF               	movwf	(ToMainHigh_sendmsg@data+1)& (0+255),b
  7114  0005E4  0100               	movlb	0	; () banked
  7115  0005E6  0EB2               	movlw	low i2c_int_handler@error_buf
  7116  0005E8  0100               	movlb	0	; () banked
  7117  0005EA  6FAE               	movwf	ToMainHigh_sendmsg@data& (0+255),b
  7118  0005EC  0E03               	movlw	3
  7119  0005EE  EC8F  F00B         	call	_ToMainHigh_sendmsg
  7120                           
  7121                           ;my_i2c.c: 208: ic_ptr->error_count = 0;
  7122  0005F2  0100               	movlb	0	; () banked
  7123  0005F4  EE20 F00F          	lfsr	2,15
  7124  0005F8                     L5:
  7125  0005F8  0100               	movlb	0	; () banked
  7126  0005FA  51CC               	movf	_ic_ptr& (0+255),w,b
  7127  0005FC  26D9               	addwf	fsr2l,f,c
  7128  0005FE  0100               	movlb	0	; () banked
  7129  000600  51CD               	movf	(_ic_ptr+1)& (0+255),w,b
  7130  000602  22DA               	addwfc	fsr2h,f,c
  7131  000604  0E00               	movlw	0
  7132  000606  6EDF               	movwf	indf2,c
  7133  000608                     i2l3305:
  7134                           
  7135                           ; BSR set to: 0
  7136                           ;my_i2c.c: 209: }
  7137                           ;my_i2c.c: 210: if (msg_to_send) {
  7138  000608  0100               	movlb	0	; () banked
  7139  00060A  51B8               	movf	i2c_int_handler@msg_to_send& (0+255),w,b
  7140  00060C  B4D8               	btfsc	status,2,c
  7141  00060E  0012               	return	
  7142                           
  7143                           ; BSR set to: 0
  7144                           ;my_i2c.c: 212: ToMainHigh_sendmsg(0, 22, (void *) ic_ptr->buffer);
  7145  000610  0E16               	movlw	22
  7146  000612  0100               	movlb	0	; () banked
  7147  000614  6FAD               	movwf	ToMainHigh_sendmsg@msgtype& (0+255),b
  7148  000616  0100               	movlb	0	; () banked
  7149  000618  C0CD  F0AF         	movff	_ic_ptr+1,ToMainHigh_sendmsg@data+1
  7150  00061C  0100               	movlb	0	; () banked
  7151  00061E  C0CC  F0AE         	movff	_ic_ptr,ToMainHigh_sendmsg@data
  7152  000622  0E00               	movlw	0
  7153  000624  EC8F  F00B         	call	_ToMainHigh_sendmsg
  7154                           
  7155                           ;my_i2c.c: 213: msg_to_send = 0;
  7156  000628  0E00               	movlw	0
  7157  00062A  0100               	movlb	0	; () banked
  7158  00062C  6FB8               	movwf	i2c_int_handler@msg_to_send& (0+255),b
  7159  00062E  0012               	return	
  7160  000630                     __end_of_i2c_int_handler:
  7161                           	opt stack 0
  7162                           pclatu	equ	0xFFB
  7163                           pclath	equ	0xFFA
  7164                           tblptru	equ	0xFF8
  7165                           tblptrh	equ	0xFF7
  7166                           tblptrl	equ	0xFF6
  7167                           tablat	equ	0xFF5
  7168                           prodh	equ	0xFF4
  7169                           prodl	equ	0xFF3
  7170                           intcon	equ	0xFF2
  7171                           intcon2	equ	0xFF1
  7172                           postinc0	equ	0xFEE
  7173                           fsr0h	equ	0xFEA
  7174                           fsr0l	equ	0xFE9
  7175                           wreg	equ	0xFE8
  7176                           indf1	equ	0xFE7
  7177                           fsr1h	equ	0xFE2
  7178                           fsr1l	equ	0xFE1
  7179                           bsr	equ	0xFE0
  7180                           indf2	equ	0xFDF
  7181                           postinc2	equ	0xFDE
  7182                           postdec2	equ	0xFDD
  7183                           fsr2h	equ	0xFDA
  7184                           fsr2l	equ	0xFD9
  7185                           status	equ	0xFD8
  7186                           
  7187 ;; *************** function _handle_start *****************
  7188 ;; Defined at:
  7189 ;;		line 29 in file "../src/my_i2c.c"
  7190 ;; Parameters:    Size  Location     Type
  7191 ;;  data_read       1    wreg     unsigned char 
  7192 ;; Auto vars:     Size  Location     Type
  7193 ;;  data_read       1    0[BANK0 ] unsigned char 
  7194 ;; Return value:  Size  Location     Type
  7195 ;;		None               void
  7196 ;; Registers used:
  7197 ;;		wreg, fsr2l, fsr2h, status,2, status,0
  7198 ;; Tracked objects:
  7199 ;;		On entry : 0/0
  7200 ;;		On exit  : 0/0
  7201 ;;		Unchanged: 0/0
  7202 ;; Data sizes:     COMRAM   BANK0   BANK1   BANK2   BANK3   BANK4   BANK5   BANK6   BANK7   BANK8   BANK9  BANK10  BANK1
      +1  BANK12  BANK13  BANK14
  7203 ;;      Params:         0       0       0       0       0       0       0       0       0       0       0       0       
      +0       0       0       0
  7204 ;;      Locals:         0       1       0       0       0       0       0       0       0       0       0       0       
      +0       0       0       0
  7205 ;;      Temps:          0       0       0       0       0       0       0       0       0       0       0       0       
      +0       0       0       0
  7206 ;;      Totals:         0       1       0       0       0       0       0       0       0       0       0       0       
      +0       0       0       0
  7207 ;;Total ram usage:        1 bytes
  7208 ;; Hardware stack levels used:    1
  7209 ;; This function calls:
  7210 ;;		Nothing
  7211 ;; This function is called by:
  7212 ;;		_i2c_int_handler
  7213 ;; This function uses a non-reentrant model
  7214 ;;
  7215                           
  7216                           	psect	text46
  7217  000D8A                     __ptext46:
  7218                           	opt stack 0
  7219  000D8A                     _handle_start:
  7220                           	opt stack 19
  7221                           
  7222                           ; BSR set to: 0
  7223                           ;incstack = 0
  7224                           ;handle_start@data_read stored from wreg
  7225  000D8A  0100               	movlb	0	; () banked
  7226  000D8C  6F97               	movwf	handle_start@data_read& (0+255),b
  7227                           
  7228                           ; BSR set to: 0
  7229                           ;my_i2c.c: 30: ic_ptr->event_count = 1;
  7230  000D8E  0100               	movlb	0	; () banked
  7231  000D90  EE20 F00C          	lfsr	2,12
  7232  000D94  0100               	movlb	0	; () banked
  7233  000D96  51CC               	movf	_ic_ptr& (0+255),w,b
  7234  000D98  26D9               	addwf	fsr2l,f,c
  7235  000D9A  0100               	movlb	0	; () banked
  7236  000D9C  51CD               	movf	(_ic_ptr+1)& (0+255),w,b
  7237  000D9E  22DA               	addwfc	fsr2h,f,c
  7238  000DA0  0E01               	movlw	1
  7239  000DA2  6EDF               	movwf	indf2,c
  7240                           
  7241                           ;my_i2c.c: 31: ic_ptr->buflen = 0;
  7242  000DA4  0100               	movlb	0	; () banked
  7243  000DA6  EE20 F00A          	lfsr	2,10
  7244  000DAA  0100               	movlb	0	; () banked
  7245  000DAC  51CC               	movf	_ic_ptr& (0+255),w,b
  7246  000DAE  26D9               	addwf	fsr2l,f,c
  7247  000DB0  0100               	movlb	0	; () banked
  7248  000DB2  51CD               	movf	(_ic_ptr+1)& (0+255),w,b
  7249  000DB4  22DA               	addwfc	fsr2h,f,c
  7250  000DB6  0E00               	movlw	0
  7251  000DB8  6EDF               	movwf	indf2,c
  7252                           
  7253                           ; BSR set to: 0
  7254                           ;my_i2c.c: 33: if (data_read) {
  7255  000DBA  0100               	movlb	0	; () banked
  7256  000DBC  5197               	movf	handle_start@data_read& (0+255),w,b
  7257  000DBE  B4D8               	btfsc	status,2,c
  7258  000DC0  D03D               	goto	i2l3149
  7259                           
  7260                           ; BSR set to: 0
  7261                           ;my_i2c.c: 34: if (SSPSTATbits.D_A == 1) {
  7262  000DC2  AAC7               	btfss	4039,5,c	;volatile
  7263  000DC4  D021               	goto	i2l276
  7264                           
  7265                           ; BSR set to: 0
  7266                           ;my_i2c.c: 37: ic_ptr->status = 0x4;
  7267  000DC6  0100               	movlb	0	; () banked
  7268  000DC8  EE20 F00D          	lfsr	2,13
  7269  000DCC  0100               	movlb	0	; () banked
  7270  000DCE  51CC               	movf	_ic_ptr& (0+255),w,b
  7271  000DD0  26D9               	addwf	fsr2l,f,c
  7272  000DD2  0100               	movlb	0	; () banked
  7273  000DD4  51CD               	movf	(_ic_ptr+1)& (0+255),w,b
  7274  000DD6  22DA               	addwfc	fsr2h,f,c
  7275  000DD8  0E04               	movlw	4
  7276  000DDA  6EDF               	movwf	indf2,c
  7277                           
  7278                           ;my_i2c.c: 38: ic_ptr->error_count++;
  7279  000DDC  0100               	movlb	0	; () banked
  7280  000DDE  EE20 F00F          	lfsr	2,15
  7281  000DE2  0100               	movlb	0	; () banked
  7282  000DE4  51CC               	movf	_ic_ptr& (0+255),w,b
  7283  000DE6  26D9               	addwf	fsr2l,f,c
  7284  000DE8  0100               	movlb	0	; () banked
  7285  000DEA  51CD               	movf	(_ic_ptr+1)& (0+255),w,b
  7286  000DEC  22DA               	addwfc	fsr2h,f,c
  7287  000DEE  2ADF               	incf	indf2,f,c
  7288                           
  7289                           ;my_i2c.c: 39: ic_ptr->error_code = 22;
  7290  000DF0  0100               	movlb	0	; () banked
  7291  000DF2  EE20 F00E          	lfsr	2,14
  7292  000DF6  0100               	movlb	0	; () banked
  7293  000DF8  51CC               	movf	_ic_ptr& (0+255),w,b
  7294  000DFA  26D9               	addwf	fsr2l,f,c
  7295  000DFC  0100               	movlb	0	; () banked
  7296  000DFE  51CD               	movf	(_ic_ptr+1)& (0+255),w,b
  7297  000E00  22DA               	addwfc	fsr2h,f,c
  7298  000E02  0E16               	movlw	22
  7299  000E04  6EDF               	movwf	indf2,c
  7300                           
  7301                           ;my_i2c.c: 40: } else {
  7302  000E06  0012               	return	
  7303  000E08                     i2l276:
  7304                           
  7305                           ; BSR set to: 0
  7306                           ;my_i2c.c: 41: if (SSPSTATbits.R_W == 1) {
  7307  000E08  A4C7               	btfss	4039,2,c	;volatile
  7308  000E0A  D00C               	goto	i2l3147
  7309                           
  7310                           ; BSR set to: 0
  7311                           ;my_i2c.c: 42: ic_ptr->status = 0x9;
  7312  000E0C  0100               	movlb	0	; () banked
  7313  000E0E  EE20 F00D          	lfsr	2,13
  7314  000E12  0100               	movlb	0	; () banked
  7315  000E14  51CC               	movf	_ic_ptr& (0+255),w,b
  7316  000E16  26D9               	addwf	fsr2l,f,c
  7317  000E18  0100               	movlb	0	; () banked
  7318  000E1A  51CD               	movf	(_ic_ptr+1)& (0+255),w,b
  7319  000E1C  22DA               	addwfc	fsr2h,f,c
  7320  000E1E  0E09               	movlw	9
  7321  000E20  6EDF               	movwf	indf2,c
  7322                           
  7323                           ;my_i2c.c: 43: } else {
  7324  000E22  0012               	return	
  7325  000E24                     i2l3147:
  7326                           
  7327                           ; BSR set to: 0
  7328                           ;my_i2c.c: 44: ic_ptr->status = 0x6;
  7329  000E24  0100               	movlb	0	; () banked
  7330  000E26  EE20 F00D          	lfsr	2,13
  7331  000E2A  0100               	movlb	0	; () banked
  7332  000E2C  51CC               	movf	_ic_ptr& (0+255),w,b
  7333  000E2E  26D9               	addwf	fsr2l,f,c
  7334  000E30  0100               	movlb	0	; () banked
  7335  000E32  51CD               	movf	(_ic_ptr+1)& (0+255),w,b
  7336  000E34  22DA               	addwfc	fsr2h,f,c
  7337  000E36  0E06               	movlw	6
  7338  000E38  6EDF               	movwf	indf2,c
  7339  000E3A  0012               	return	
  7340  000E3C                     i2l3149:
  7341                           
  7342                           ; BSR set to: 0
  7343                           ;my_i2c.c: 48: ic_ptr->status = 0x5;
  7344  000E3C  0100               	movlb	0	; () banked
  7345  000E3E  EE20 F00D          	lfsr	2,13
  7346  000E42  0100               	movlb	0	; () banked
  7347  000E44  51CC               	movf	_ic_ptr& (0+255),w,b
  7348  000E46  26D9               	addwf	fsr2l,f,c
  7349  000E48  0100               	movlb	0	; () banked
  7350  000E4A  51CD               	movf	(_ic_ptr+1)& (0+255),w,b
  7351  000E4C  22DA               	addwfc	fsr2h,f,c
  7352  000E4E  0E05               	movlw	5
  7353  000E50  6EDF               	movwf	indf2,c
  7354  000E52  0012               	return	
  7355  000E54                     __end_of_handle_start:
  7356                           	opt stack 0
  7357                           pclatu	equ	0xFFB
  7358                           pclath	equ	0xFFA
  7359                           tblptru	equ	0xFF8
  7360                           tblptrh	equ	0xFF7
  7361                           tblptrl	equ	0xFF6
  7362                           tablat	equ	0xFF5
  7363                           prodh	equ	0xFF4
  7364                           prodl	equ	0xFF3
  7365                           intcon	equ	0xFF2
  7366                           intcon2	equ	0xFF1
  7367                           postinc0	equ	0xFEE
  7368                           fsr0h	equ	0xFEA
  7369                           fsr0l	equ	0xFE9
  7370                           wreg	equ	0xFE8
  7371                           indf1	equ	0xFE7
  7372                           fsr1h	equ	0xFE2
  7373                           fsr1l	equ	0xFE1
  7374                           bsr	equ	0xFE0
  7375                           indf2	equ	0xFDF
  7376                           postinc2	equ	0xFDE
  7377                           postdec2	equ	0xFDD
  7378                           fsr2h	equ	0xFDA
  7379                           fsr2l	equ	0xFD9
  7380                           status	equ	0xFD8
  7381                           
  7382 ;; *************** function _ToMainHigh_sendmsg *****************
  7383 ;; Defined at:
  7384 ;;		line 127 in file "../src/messages.c"
  7385 ;; Parameters:    Size  Location     Type
  7386 ;;  length          1    wreg     unsigned char 
  7387 ;;  msgtype         1   22[BANK0 ] unsigned char 
  7388 ;;  data            2   23[BANK0 ] PTR void 
  7389 ;;		 -> NULL(0), i2c_int_handler@error_buf(3), main@ic(31), 
  7390 ;; Auto vars:     Size  Location     Type
  7391 ;;  length          1   25[BANK0 ] unsigned char 
  7392 ;; Return value:  Size  Location     Type
  7393 ;;                  1    wreg      char 
  7394 ;; Registers used:
  7395 ;;		wreg, fsr1l, fsr1h, fsr2l, fsr2h, status,2, status,0, prodl, prodh, cstack
  7396 ;; Tracked objects:
  7397 ;;		On entry : 0/0
  7398 ;;		On exit  : 0/0
  7399 ;;		Unchanged: 0/0
  7400 ;; Data sizes:     COMRAM   BANK0   BANK1   BANK2   BANK3   BANK4   BANK5   BANK6   BANK7   BANK8   BANK9  BANK10  BANK1
      +1  BANK12  BANK13  BANK14
  7401 ;;      Params:         0       3       0       0       0       0       0       0       0       0       0       0       
      +0       0       0       0
  7402 ;;      Locals:         0       1       0       0       0       0       0       0       0       0       0       0       
      +0       0       0       0
  7403 ;;      Temps:          0       0       0       0       0       0       0       0       0       0       0       0       
      +0       0       0       0
  7404 ;;      Totals:         0       4       0       0       0       0       0       0       0       0       0       0       
      +0       0       0       0
  7405 ;;Total ram usage:        4 bytes
  7406 ;; Hardware stack levels used:    1
  7407 ;; Hardware stack levels required when called:    2
  7408 ;; This function calls:
  7409 ;;		i2_send_msg
  7410 ;; This function is called by:
  7411 ;;		_i2c_int_handler
  7412 ;; This function uses a non-reentrant model
  7413 ;;
  7414                           
  7415                           	psect	text47
  7416  00171E                     __ptext47:
  7417                           	opt stack 0
  7418  00171E                     _ToMainHigh_sendmsg:
  7419                           	opt stack 17
  7420                           
  7421                           ; BSR set to: 0
  7422                           ;incstack = 0
  7423                           ;ToMainHigh_sendmsg@length stored from wreg
  7424  00171E  0100               	movlb	0	; () banked
  7425  001720  6FB0               	movwf	ToMainHigh_sendmsg@length& (0+255),b
  7426                           
  7427                           ; BSR set to: 0
  7428                           ;messages.c: 133: return (send_msg(&ToMainHigh_MQ, length, msgtype, data));
  7429                           ;	Return value of _ToMainHigh_sendmsg is never used
  7430  001722  0101               	movlb	1	; () banked
  7431  001724  0E01               	movlw	high _ToMainHigh_MQ
  7432  001726  0100               	movlb	0	; () banked
  7433  001728  6FA2               	movwf	(i2send_msg@qptr+1)& (0+255),b
  7434  00172A  0101               	movlb	1	; () banked
  7435  00172C  0E6C               	movlw	low _ToMainHigh_MQ
  7436  00172E  0100               	movlb	0	; () banked
  7437  001730  6FA1               	movwf	i2send_msg@qptr& (0+255),b
  7438  001732  C0B0  F0A3         	movff	ToMainHigh_sendmsg@length,i2send_msg@length
  7439  001736  C0AD  F0A4         	movff	ToMainHigh_sendmsg@msgtype,i2send_msg@msgtype
  7440  00173A  0100               	movlb	0	; () banked
  7441  00173C  C0AF  F0A6         	movff	ToMainHigh_sendmsg@data+1,i2send_msg@data+1
  7442  001740  0100               	movlb	0	; () banked
  7443  001742  C0AE  F0A5         	movff	ToMainHigh_sendmsg@data,i2send_msg@data
  7444  001746  ECE6  F005         	call	i2_send_msg	;wreg free
  7445  00174A  0012               	return	
  7446  00174C                     __end_of_ToMainHigh_sendmsg:
  7447                           	opt stack 0
  7448                           pclatu	equ	0xFFB
  7449                           pclath	equ	0xFFA
  7450                           tblptru	equ	0xFF8
  7451                           tblptrh	equ	0xFF7
  7452                           tblptrl	equ	0xFF6
  7453                           tablat	equ	0xFF5
  7454                           prodh	equ	0xFF4
  7455                           prodl	equ	0xFF3
  7456                           intcon	equ	0xFF2
  7457                           intcon2	equ	0xFF1
  7458                           postinc0	equ	0xFEE
  7459                           fsr0h	equ	0xFEA
  7460                           fsr0l	equ	0xFE9
  7461                           wreg	equ	0xFE8
  7462                           indf1	equ	0xFE7
  7463                           fsr1h	equ	0xFE2
  7464                           fsr1l	equ	0xFE1
  7465                           bsr	equ	0xFE0
  7466                           indf2	equ	0xFDF
  7467                           postinc2	equ	0xFDE
  7468                           postdec2	equ	0xFDD
  7469                           fsr2h	equ	0xFDA
  7470                           fsr2l	equ	0xFD9
  7471                           status	equ	0xFD8
  7472                           
  7473 ;; *************** function i2_send_msg *****************
  7474 ;; Defined at:
  7475 ;;		line 25 in file "../src/messages.c"
  7476 ;; Parameters:    Size  Location     Type
  7477 ;;  qptr            2   10[BANK0 ] PTR struct __msg_queue
  7478 ;;		 -> FromMainHigh_MQ(54), FromMainLow_MQ(54), ToMainHigh_MQ(54), ToMainLow_MQ(54), 
  7479 ;;  length          1   12[BANK0 ] unsigned char 
  7480 ;;  msgtype         1   13[BANK0 ] unsigned char 
  7481 ;;  data            2   14[BANK0 ] PTR void 
  7482 ;;		 -> NULL(0), uart_recv_int_handler@readin(1), i2c_int_handler@error_buf(3), main@msgbuffer(11), 
  7483 ;;		 -> main@t1thread_data(2), main@ic(31), 
  7484 ;; Auto vars:     Size  Location     Type
  7485 ;;  send_msg        2   20[BANK0 ] PTR struct __msg
  7486 ;;		 -> FromMainLow_MQ.queue(52), FromMainHigh_MQ.queue(52), ToMainHigh_MQ.queue(52), ToMainLow_MQ.queue(52), 
  7487 ;;		 -> FromMainHigh_MQ(54), FromMainLow_MQ(54), ToMainHigh_MQ(54), ToMainLow_MQ(54), 
  7488 ;;  send_msg        2   17[BANK0 ] unsigned int 
  7489 ;;  send_msg        1   19[BANK0 ] unsigned char 
  7490 ;; Return value:  Size  Location     Type
  7491 ;;                  1    wreg      char 
  7492 ;; Registers used:
  7493 ;;		wreg, fsr1l, fsr1h, fsr2l, fsr2h, status,2, status,0, prodl, prodh, cstack
  7494 ;; Tracked objects:
  7495 ;;		On entry : 0/0
  7496 ;;		On exit  : 0/0
  7497 ;;		Unchanged: 0/0
  7498 ;; Data sizes:     COMRAM   BANK0   BANK1   BANK2   BANK3   BANK4   BANK5   BANK6   BANK7   BANK8   BANK9  BANK10  BANK1
      +1  BANK12  BANK13  BANK14
  7499 ;;      Params:         0       6       0       0       0       0       0       0       0       0       0       0       
      +0       0       0       0
  7500 ;;      Locals:         0       5       0       0       0       0       0       0       0       0       0       0       
      +0       0       0       0
  7501 ;;      Temps:          0       1       0       0       0       0       0       0       0       0       0       0       
      +0       0       0       0
  7502 ;;      Totals:         0      12       0       0       0       0       0       0       0       0       0       0       
      +0       0       0       0
  7503 ;;Total ram usage:       12 bytes
  7504 ;; Hardware stack levels used:    1
  7505 ;; Hardware stack levels required when called:    1
  7506 ;; This function calls:
  7507 ;;		i2_memcpy
  7508 ;; This function is called by:
  7509 ;;		_ToMainHigh_sendmsg
  7510 ;; This function uses a non-reentrant model
  7511 ;;
  7512                           
  7513                           	psect	text48
  7514  000BCC                     __ptext48:
  7515                           	opt stack 0
  7516  000BCC                     i2_send_msg:
  7517                           	opt stack 17
  7518                           
  7519                           ;messages.c: 26: unsigned char slot;
  7520                           ;messages.c: 28: msg *qmsg;
  7521                           ;messages.c: 29: size_t tlength = length;
  7522                           
  7523                           ;incstack = 0
  7524  000BCC  0100               	movlb	0	; () banked
  7525  000BCE  C0A3  F0A8         	movff	i2send_msg@length,i2send_msg@tlength
  7526  000BD2  0100               	movlb	0	; () banked
  7527  000BD4  6BA9               	clrf	(i2send_msg@tlength+1)& (0+255),b
  7528                           
  7529                           ; BSR set to: 0
  7530                           ;messages.c: 39: slot = qptr->cur_write_ind;
  7531  000BD6  0100               	movlb	0	; () banked
  7532  000BD8  EE20 F034          	lfsr	2,52
  7533  000BDC  0100               	movlb	0	; () banked
  7534  000BDE  51A1               	movf	i2send_msg@qptr& (0+255),w,b
  7535  000BE0  26D9               	addwf	fsr2l,f,c
  7536  000BE2  0100               	movlb	0	; () banked
  7537  000BE4  51A2               	movf	(i2send_msg@qptr+1)& (0+255),w,b
  7538  000BE6  22DA               	addwfc	fsr2h,f,c
  7539  000BE8  50DF               	movf	indf2,w,c
  7540  000BEA  0100               	movlb	0	; () banked
  7541  000BEC  6FAA               	movwf	i2send_msg@slot& (0+255),b
  7542                           
  7543                           ; BSR set to: 0
  7544                           ;messages.c: 40: qmsg = &(qptr->queue[slot]);
  7545  000BEE  0100               	movlb	0	; () banked
  7546  000BF0  51AA               	movf	i2send_msg@slot& (0+255),w,b
  7547  000BF2  0D0D               	mullw	13
  7548  000BF4  50F3               	movf	prodl,w,c
  7549  000BF6  0100               	movlb	0	; () banked
  7550  000BF8  25A1               	addwf	i2send_msg@qptr& (0+255),w,b
  7551  000BFA  0100               	movlb	0	; () banked
  7552  000BFC  6FAB               	movwf	i2send_msg@qmsg& (0+255),b
  7553  000BFE  50F4               	movf	prodh,w,c
  7554  000C00  0100               	movlb	0	; () banked
  7555  000C02  21A2               	addwfc	(i2send_msg@qptr+1)& (0+255),w,b
  7556  000C04  0100               	movlb	0	; () banked
  7557  000C06  6FAC               	movwf	(i2send_msg@qmsg+1)& (0+255),b
  7558                           
  7559                           ; BSR set to: 0
  7560                           ;messages.c: 42: if (qmsg->full != 0) {
  7561  000C08  C0AB  FFD9         	movff	i2send_msg@qmsg,fsr2l
  7562  000C0C  C0AC  FFDA         	movff	i2send_msg@qmsg+1,fsr2h
  7563  000C10  50DF               	movf	indf2,w,c
  7564  000C12  B4D8               	btfsc	status,2,c
  7565  000C14  D002               	goto	i2l3005
  7566                           
  7567                           ; BSR set to: 0
  7568                           ;messages.c: 43: return (-1);
  7569  000C16  0EFF               	movlw	255
  7570  000C18  0012               	return	
  7571  000C1A                     i2l3005:
  7572                           
  7573                           ; BSR set to: 0
  7574                           ;messages.c: 44: }
  7575                           ;messages.c: 47: qmsg->length = length;
  7576  000C1A  0100               	movlb	0	; () banked
  7577  000C1C  EE20 F001          	lfsr	2,1
  7578  000C20  0100               	movlb	0	; () banked
  7579  000C22  51AB               	movf	i2send_msg@qmsg& (0+255),w,b
  7580  000C24  26D9               	addwf	fsr2l,f,c
  7581  000C26  0100               	movlb	0	; () banked
  7582  000C28  51AC               	movf	(i2send_msg@qmsg+1)& (0+255),w,b
  7583  000C2A  22DA               	addwfc	fsr2h,f,c
  7584  000C2C  0100               	movlb	0	; () banked
  7585  000C2E  C0A3  FFDF         	movff	i2send_msg@length,indf2
  7586                           
  7587                           ;messages.c: 48: qmsg->msgtype = msgtype;
  7588  000C32  0100               	movlb	0	; () banked
  7589  000C34  EE20 F002          	lfsr	2,2
  7590  000C38  0100               	movlb	0	; () banked
  7591  000C3A  51AB               	movf	i2send_msg@qmsg& (0+255),w,b
  7592  000C3C  26D9               	addwf	fsr2l,f,c
  7593  000C3E  0100               	movlb	0	; () banked
  7594  000C40  51AC               	movf	(i2send_msg@qmsg+1)& (0+255),w,b
  7595  000C42  22DA               	addwfc	fsr2h,f,c
  7596  000C44  0100               	movlb	0	; () banked
  7597  000C46  C0A4  FFDF         	movff	i2send_msg@msgtype,indf2
  7598                           
  7599                           ; BSR set to: 0
  7600                           ;messages.c: 56: memcpy(qmsg->data, data, tlength);
  7601  000C4A  0E03               	movlw	3
  7602  000C4C  0100               	movlb	0	; () banked
  7603  000C4E  25AB               	addwf	i2send_msg@qmsg& (0+255),w,b
  7604  000C50  0100               	movlb	0	; () banked
  7605  000C52  6F97               	movwf	i2memcpy@d1& (0+255),b
  7606  000C54  0E00               	movlw	0
  7607  000C56  0100               	movlb	0	; () banked
  7608  000C58  21AC               	addwfc	(i2send_msg@qmsg+1)& (0+255),w,b
  7609  000C5A  0100               	movlb	0	; () banked
  7610  000C5C  6F98               	movwf	(i2memcpy@d1+1)& (0+255),b
  7611  000C5E  0100               	movlb	0	; () banked
  7612  000C60  C0A6  F09A         	movff	i2send_msg@data+1,i2memcpy@s1+1
  7613  000C64  0100               	movlb	0	; () banked
  7614  000C66  C0A5  F099         	movff	i2send_msg@data,i2memcpy@s1
  7615  000C6A  C0A8  F09B         	movff	i2send_msg@tlength,i2memcpy@n
  7616  000C6E  C0A9  F09C         	movff	i2send_msg@tlength+1,i2memcpy@n+1
  7617  000C72  ECC7  F009         	call	i2_memcpy	;wreg free
  7618                           
  7619                           ;messages.c: 57: qptr->cur_write_ind = (qptr->cur_write_ind + 1) % 4;
  7620  000C76  0100               	movlb	0	; () banked
  7621  000C78  EE20 F034          	lfsr	2,52
  7622  000C7C  0100               	movlb	0	; () banked
  7623  000C7E  51A1               	movf	i2send_msg@qptr& (0+255),w,b
  7624  000C80  26D9               	addwf	fsr2l,f,c
  7625  000C82  0100               	movlb	0	; () banked
  7626  000C84  51A2               	movf	(i2send_msg@qptr+1)& (0+255),w,b
  7627  000C86  22DA               	addwfc	fsr2h,f,c
  7628  000C88  0100               	movlb	0	; () banked
  7629  000C8A  EE10 F034          	lfsr	1,52
  7630  000C8E  0100               	movlb	0	; () banked
  7631  000C90  51A1               	movf	i2send_msg@qptr& (0+255),w,b
  7632  000C92  26E1               	addwf	fsr1l,f,c
  7633  000C94  0100               	movlb	0	; () banked
  7634  000C96  51A2               	movf	(i2send_msg@qptr+1)& (0+255),w,b
  7635  000C98  22E2               	addwfc	fsr1h,f,c
  7636  000C9A  50E7               	movf	indf1,w,c
  7637  000C9C  0100               	movlb	0	; () banked
  7638  000C9E  6FA7               	movwf	??i2_send_msg& (0+255),b
  7639  000CA0  0100               	movlb	0	; () banked
  7640  000CA2  29A7               	incf	??i2_send_msg& (0+255),w,b
  7641  000CA4  0B03               	andlw	3
  7642  000CA6  6EDF               	movwf	indf2,c
  7643                           
  7644                           ; BSR set to: 0
  7645                           ;messages.c: 60: qmsg->full = 1;
  7646  000CA8  C0AB  FFD9         	movff	i2send_msg@qmsg,fsr2l
  7647  000CAC  C0AC  FFDA         	movff	i2send_msg@qmsg+1,fsr2h
  7648  000CB0  0E01               	movlw	1
  7649  000CB2  6EDF               	movwf	indf2,c
  7650                           
  7651                           ; BSR set to: 0
  7652                           ;messages.c: 61: return (1);
  7653  000CB4  0E01               	movlw	1
  7654  000CB6  0012               	return	
  7655  000CB8                     __end_ofi2_send_msg:
  7656                           	opt stack 0
  7657                           pclatu	equ	0xFFB
  7658                           pclath	equ	0xFFA
  7659                           tblptru	equ	0xFF8
  7660                           tblptrh	equ	0xFF7
  7661                           tblptrl	equ	0xFF6
  7662                           tablat	equ	0xFF5
  7663                           prodh	equ	0xFF4
  7664                           prodl	equ	0xFF3
  7665                           intcon	equ	0xFF2
  7666                           intcon2	equ	0xFF1
  7667                           postinc0	equ	0xFEE
  7668                           fsr0h	equ	0xFEA
  7669                           fsr0l	equ	0xFE9
  7670                           wreg	equ	0xFE8
  7671                           indf1	equ	0xFE7
  7672                           fsr1h	equ	0xFE2
  7673                           fsr1l	equ	0xFE1
  7674                           bsr	equ	0xFE0
  7675                           indf2	equ	0xFDF
  7676                           postinc2	equ	0xFDE
  7677                           postdec2	equ	0xFDD
  7678                           fsr2h	equ	0xFDA
  7679                           fsr2l	equ	0xFD9
  7680                           status	equ	0xFD8
  7681                           
  7682 ;; *************** function i2_memcpy *****************
  7683 ;; Defined at:
  7684 ;;		line 11 in file "C:\Program Files (x86)\Microchip\xc8\v1.33\sources\common\memcpy.c"
  7685 ;; Parameters:    Size  Location     Type
  7686 ;;  d1              2    0[BANK0 ] PTR void 
  7687 ;;		 -> main@uc.queue(52), main@ic.queue(52), main@t1thread_data.queue(52), FromMainLow_MQ.queue(52), 
  7688 ;;		 -> FromMainHigh_MQ.queue(52), SensorData_MQ.queue(52), ToMainHigh_MQ.queue(52), ToMainLow_MQ.queue(52), 
  7689 ;;		 -> NULL(0), FromMainHigh_MQ(54), FromMainLow_MQ(54), SensorData_sendmsg@qptr.queue(52), 
  7690 ;;		 -> SensorData_sendmsg@qptr(2), ToMainHigh_MQ(54), ToMainLow_MQ(54), main@msgbuffer(11), 
  7691 ;;		 -> main@uc(14), 
  7692 ;;  s1              2    2[BANK0 ] PTR const void 
  7693 ;;		 -> SensorData_sendmsg@qptr.data(10), SensorData_sendmsg@qptr.queue.data(10), main@t1thread_data.queue.data(10), mai
      +n@ic.queue.data(10), 
  7694 ;;		 -> main@uc.queue.data(10), SensorData_MQ.data(10), SensorData_MQ.queue.data(10), ToMainLow_MQ.data(10), 
  7695 ;;		 -> ToMainHigh_MQ.data(10), FromMainLow_MQ.data(10), FromMainHigh_MQ.data(10), ToMainLow_MQ.queue.data(10), 
  7696 ;;		 -> ToMainHigh_MQ.queue.data(10), FromMainHigh_MQ.queue.data(10), FromMainLow_MQ.queue.data(10), NULL(0), 
  7697 ;;		 -> uart_recv_int_handler@readin(1), i2c_int_handler@error_buf(3), FromMainHigh_MQ(54), FromMainLow_MQ(54), 
  7698 ;;		 -> SensorData_MQ(54), SensorData_sendmsg@qptr(2), ToMainHigh_MQ(54), ToMainLow_MQ(54), 
  7699 ;;		 -> main@msgbuffer(11), main@t1thread_data(2), main@ic(31), 
  7700 ;;  n               2    4[BANK0 ] unsigned int 
  7701 ;; Auto vars:     Size  Location     Type
  7702 ;;  memcpy          2    8[BANK0 ] PTR const unsigned char 
  7703 ;;		 -> SensorData_sendmsg@qptr.data(10), SensorData_sendmsg@qptr.queue.data(10), main@t1thread_data.queue.data(10), mai
      +n@ic.queue.data(10), 
  7704 ;;		 -> main@uc.queue.data(10), SensorData_MQ.data(10), SensorData_MQ.queue.data(10), ToMainLow_MQ.data(10), 
  7705 ;;		 -> ToMainHigh_MQ.data(10), FromMainLow_MQ.data(10), FromMainHigh_MQ.data(10), ToMainLow_MQ.queue.data(10), 
  7706 ;;		 -> ToMainHigh_MQ.queue.data(10), FromMainHigh_MQ.queue.data(10), FromMainLow_MQ.queue.data(10), NULL(0), 
  7707 ;;		 -> uart_recv_int_handler@readin(1), i2c_int_handler@error_buf(3), FromMainHigh_MQ(54), FromMainLow_MQ(54), 
  7708 ;;		 -> SensorData_MQ(54), SensorData_sendmsg@qptr(2), ToMainHigh_MQ(54), ToMainLow_MQ(54), 
  7709 ;;		 -> main@msgbuffer(11), main@t1thread_data(2), main@ic(31), 
  7710 ;;  memcpy          2    6[BANK0 ] PTR unsigned char 
  7711 ;;		 -> main@uc.queue(52), main@ic.queue(52), main@t1thread_data.queue(52), FromMainLow_MQ.queue(52), 
  7712 ;;		 -> FromMainHigh_MQ.queue(52), SensorData_MQ.queue(52), ToMainHigh_MQ.queue(52), ToMainLow_MQ.queue(52), 
  7713 ;;		 -> NULL(0), FromMainHigh_MQ(54), FromMainLow_MQ(54), SensorData_sendmsg@qptr.queue(52), 
  7714 ;;		 -> SensorData_sendmsg@qptr(2), ToMainHigh_MQ(54), ToMainLow_MQ(54), main@msgbuffer(11), 
  7715 ;;		 -> main@uc(14), 
  7716 ;; Return value:  Size  Location     Type
  7717 ;;                  2    0[BANK0 ] PTR void 
  7718 ;; Registers used:
  7719 ;;		wreg, fsr1l, fsr1h, fsr2l, fsr2h, status,2, status,0
  7720 ;; Tracked objects:
  7721 ;;		On entry : 0/0
  7722 ;;		On exit  : 0/0
  7723 ;;		Unchanged: 0/0
  7724 ;; Data sizes:     COMRAM   BANK0   BANK1   BANK2   BANK3   BANK4   BANK5   BANK6   BANK7   BANK8   BANK9  BANK10  BANK1
      +1  BANK12  BANK13  BANK14
  7725 ;;      Params:         0       6       0       0       0       0       0       0       0       0       0       0       
      +0       0       0       0
  7726 ;;      Locals:         0       4       0       0       0       0       0       0       0       0       0       0       
      +0       0       0       0
  7727 ;;      Temps:          0       0       0       0       0       0       0       0       0       0       0       0       
      +0       0       0       0
  7728 ;;      Totals:         0      10       0       0       0       0       0       0       0       0       0       0       
      +0       0       0       0
  7729 ;;Total ram usage:       10 bytes
  7730 ;; Hardware stack levels used:    1
  7731 ;; This function calls:
  7732 ;;		Nothing
  7733 ;; This function is called by:
  7734 ;;		i2_send_msg
  7735 ;; This function uses a non-reentrant model
  7736 ;;
  7737                           
  7738                           	psect	text49
  7739  00138E                     __ptext49:
  7740                           	opt stack 0
  7741  00138E                     i2_memcpy:
  7742                           	opt stack 17
  7743                           
  7744                           ; BSR set to: 0
  7745                           ;incstack = 0
  7746  00138E  0100               	movlb	0	; () banked
  7747  001390  C09A  F0A0         	movff	i2memcpy@s1+1,i2memcpy@s+1
  7748  001394  0100               	movlb	0	; () banked
  7749  001396  C099  F09F         	movff	i2memcpy@s1,i2memcpy@s
  7750  00139A  0100               	movlb	0	; () banked
  7751  00139C  C098  F09E         	movff	i2memcpy@d1+1,i2memcpy@d+1
  7752  0013A0  0100               	movlb	0	; () banked
  7753  0013A2  C097  F09D         	movff	i2memcpy@d1,i2memcpy@d
  7754  0013A6  D010               	goto	i2l2923
  7755  0013A8                     i2l2917:
  7756                           
  7757                           ; BSR set to: 0
  7758  0013A8  C09F  FFD9         	movff	i2memcpy@s,fsr2l
  7759  0013AC  C0A0  FFDA         	movff	i2memcpy@s+1,fsr2h
  7760  0013B0  C09D  FFE1         	movff	i2memcpy@d,fsr1l
  7761  0013B4  C09E  FFE2         	movff	i2memcpy@d+1,fsr1h
  7762  0013B8  CFDF FFE7          	movff	indf2,indf1
  7763                           
  7764                           ; BSR set to: 0
  7765  0013BC  0100               	movlb	0	; () banked
  7766  0013BE  4B9F               	infsnz	i2memcpy@s& (0+255),f,b
  7767  0013C0  2BA0               	incf	(i2memcpy@s+1)& (0+255),f,b
  7768                           
  7769                           ; BSR set to: 0
  7770  0013C2  0100               	movlb	0	; () banked
  7771  0013C4  4B9D               	infsnz	i2memcpy@d& (0+255),f,b
  7772  0013C6  2B9E               	incf	(i2memcpy@d+1)& (0+255),f,b
  7773  0013C8                     i2l2923:
  7774                           
  7775                           ; BSR set to: 0
  7776  0013C8  0100               	movlb	0	; () banked
  7777  0013CA  079B               	decf	i2memcpy@n& (0+255),f,b
  7778  0013CC  A0D8               	btfss	status,0,c
  7779  0013CE  079C               	decf	(i2memcpy@n+1)& (0+255),f,b
  7780  0013D0  0100               	movlb	0	; () banked
  7781  0013D2  299B               	incf	i2memcpy@n& (0+255),w,b
  7782  0013D4  B4D8               	btfsc	status,2,c
  7783  0013D6  299C               	incf	(i2memcpy@n+1)& (0+255),w,b
  7784  0013D8  B4D8               	btfsc	status,2,c
  7785                           
  7786                           ; BSR set to: 0
  7787                           
  7788                           ; BSR set to: 0
  7789                           ;	Return value of i2_memcpy is never used
  7790  0013DA  0012               	return	
  7791  0013DC  D7E5               	goto	i2l2917
  7792  0013DE                     __end_ofi2_memcpy:
  7793                           	opt stack 0
  7794                           pclatu	equ	0xFFB
  7795                           pclath	equ	0xFFA
  7796                           tblptru	equ	0xFF8
  7797                           tblptrh	equ	0xFF7
  7798                           tblptrl	equ	0xFF6
  7799                           tablat	equ	0xFF5
  7800                           prodh	equ	0xFF4
  7801                           prodl	equ	0xFF3
  7802                           intcon	equ	0xFF2
  7803                           intcon2	equ	0xFF1
  7804                           postinc0	equ	0xFEE
  7805                           fsr0h	equ	0xFEA
  7806                           fsr0l	equ	0xFE9
  7807                           wreg	equ	0xFE8
  7808                           indf1	equ	0xFE7
  7809                           fsr1h	equ	0xFE2
  7810                           fsr1l	equ	0xFE1
  7811                           bsr	equ	0xFE0
  7812                           indf2	equ	0xFDF
  7813                           postinc2	equ	0xFDE
  7814                           postdec2	equ	0xFDD
  7815                           fsr2h	equ	0xFDA
  7816                           fsr2l	equ	0xFD9
  7817                           status	equ	0xFD8
  7818                           
  7819 ;; *************** function _SleepIfOkay *****************
  7820 ;; Defined at:
  7821 ;;		line 291 in file "../src/messages.c"
  7822 ;; Parameters:    Size  Location     Type
  7823 ;;		None
  7824 ;; Auto vars:     Size  Location     Type
  7825 ;;		None
  7826 ;; Return value:  Size  Location     Type
  7827 ;;		None               void
  7828 ;; Registers used:
  7829 ;;		wreg, fsr2l, fsr2h, status,2, status,0, prodl, prodh, cstack
  7830 ;; Tracked objects:
  7831 ;;		On entry : 0/0
  7832 ;;		On exit  : 0/0
  7833 ;;		Unchanged: 0/0
  7834 ;; Data sizes:     COMRAM   BANK0   BANK1   BANK2   BANK3   BANK4   BANK5   BANK6   BANK7   BANK8   BANK9  BANK10  BANK1
      +1  BANK12  BANK13  BANK14
  7835 ;;      Params:         0       0       0       0       0       0       0       0       0       0       0       0       
      +0       0       0       0
  7836 ;;      Locals:         0       0       0       0       0       0       0       0       0       0       0       0       
      +0       0       0       0
  7837 ;;      Temps:          0       0       0       0       0       0       0       0       0       0       0       0       
      +0       0       0       0
  7838 ;;      Totals:         0       0       0       0       0       0       0       0       0       0       0       0       
      +0       0       0       0
  7839 ;;Total ram usage:        0 bytes
  7840 ;; Hardware stack levels used:    1
  7841 ;; Hardware stack levels required when called:    2
  7842 ;; This function calls:
  7843 ;;		_enter_sleep_mode
  7844 ;;		i2_check_msg
  7845 ;;		i2_in_high_int
  7846 ;;		i2_in_low_int
  7847 ;; This function is called by:
  7848 ;;		_InterruptHandlerHigh
  7849 ;; This function uses a non-reentrant model
  7850 ;;
  7851                           
  7852                           	psect	text50
  7853  001280                     __ptext50:
  7854                           	opt stack 0
  7855  001280                     _SleepIfOkay:
  7856                           	opt stack 18
  7857                           
  7858                           ;messages.c: 293: if (MQ_Main_Willing_to_block == 0) {
  7859                           
  7860                           ; BSR set to: 0
  7861                           ;incstack = 0
  7862  001280  0100               	movlb	0	; () banked
  7863  001282  6760               	tstfsz	_MQ_Main_Willing_to_block& (0+255),b
  7864  001284  D001               	goto	i2l2485
  7865  001286  0012               	return	
  7866  001288                     i2l2485:
  7867                           
  7868                           ; BSR set to: 0
  7869                           ;messages.c: 295: }
  7870                           ;messages.c: 298: if (in_low_int()) {
  7871  001288  EC53  F00A         	call	i2_in_low_int	;wreg free
  7872  00128C  0100               	movlb	0	; () banked
  7873  00128E  519A               	movf	(?i2_in_low_int+1)& (0+255),w,b
  7874  001290  0100               	movlb	0	; () banked
  7875  001292  1199               	iorwf	?i2_in_low_int& (0+255),w,b
  7876  001294  A4D8               	btfss	status,2,c
  7877  001296  0012               	return	
  7878                           
  7879                           ; BSR set to: 0
  7880                           ;messages.c: 300: }
  7881                           ;messages.c: 303: if (!in_high_int()) {
  7882                           
  7883                           ; BSR set to: 0
  7884                           
  7885                           ; BSR set to: 0
  7886                           ;messages.c: 299: return;
  7887  001298  EC72  F00C         	call	i2_in_high_int	;wreg free
  7888  00129C  0100               	movlb	0	; () banked
  7889  00129E  5198               	movf	(?i2_in_high_int+1)& (0+255),w,b
  7890  0012A0  0100               	movlb	0	; () banked
  7891  0012A2  1197               	iorwf	?i2_in_high_int& (0+255),w,b
  7892  0012A4  B4D8               	btfsc	status,2,c
  7893  0012A6  0012               	return	
  7894                           
  7895                           ; BSR set to: 0
  7896                           ;messages.c: 305: }
  7897                           ;messages.c: 310: if (check_msg(&ToMainHigh_MQ)) {
  7898                           
  7899                           ; BSR set to: 0
  7900                           
  7901                           ; BSR set to: 0
  7902                           ;messages.c: 304: return;
  7903  0012A8  0101               	movlb	1	; () banked
  7904  0012AA  0E01               	movlw	high _ToMainHigh_MQ
  7905  0012AC  0100               	movlb	0	; () banked
  7906  0012AE  6F98               	movwf	(i2check_msg@qptr+1)& (0+255),b
  7907  0012B0  0101               	movlb	1	; () banked
  7908  0012B2  0E6C               	movlw	low _ToMainHigh_MQ
  7909  0012B4  0100               	movlb	0	; () banked
  7910  0012B6  6F97               	movwf	i2check_msg@qptr& (0+255),b
  7911  0012B8  EC19  F00B         	call	i2_check_msg	;wreg free
  7912  0012BC  0900               	iorlw	0
  7913  0012BE  A4D8               	btfss	status,2,c
  7914  0012C0  0012               	return	
  7915                           
  7916                           ;messages.c: 312: }
  7917                           ;messages.c: 313: if (check_msg(&ToMainLow_MQ)) {
  7918                           
  7919                           ;messages.c: 311: return;
  7920  0012C2  0100               	movlb	0	; () banked
  7921  0012C4  0E00               	movlw	high _ToMainLow_MQ
  7922  0012C6  0100               	movlb	0	; () banked
  7923  0012C8  6F98               	movwf	(i2check_msg@qptr+1)& (0+255),b
  7924  0012CA  0100               	movlb	0	; () banked
  7925  0012CC  0E61               	movlw	low _ToMainLow_MQ
  7926  0012CE  0100               	movlb	0	; () banked
  7927  0012D0  6F97               	movwf	i2check_msg@qptr& (0+255),b
  7928  0012D2  EC19  F00B         	call	i2_check_msg	;wreg free
  7929  0012D6  0900               	iorlw	0
  7930  0012D8  B4D8               	btfsc	status,2,c
  7931                           
  7932                           ;messages.c: 315: }
  7933                           ;messages.c: 316: enter_sleep_mode();
  7934                           
  7935                           ;messages.c: 314: return;
  7936  0012DA  EC7E  F00C         	call	_enter_sleep_mode	;wreg free
  7937  0012DE  0012               	return	
  7938  0012E0                     __end_of_SleepIfOkay:
  7939                           	opt stack 0
  7940                           pclatu	equ	0xFFB
  7941                           pclath	equ	0xFFA
  7942                           tblptru	equ	0xFF8
  7943                           tblptrh	equ	0xFF7
  7944                           tblptrl	equ	0xFF6
  7945                           tablat	equ	0xFF5
  7946                           prodh	equ	0xFF4
  7947                           prodl	equ	0xFF3
  7948                           intcon	equ	0xFF2
  7949                           intcon2	equ	0xFF1
  7950                           postinc0	equ	0xFEE
  7951                           fsr0h	equ	0xFEA
  7952                           fsr0l	equ	0xFE9
  7953                           wreg	equ	0xFE8
  7954                           indf1	equ	0xFE7
  7955                           fsr1h	equ	0xFE2
  7956                           fsr1l	equ	0xFE1
  7957                           bsr	equ	0xFE0
  7958                           indf2	equ	0xFDF
  7959                           postinc2	equ	0xFDE
  7960                           postdec2	equ	0xFDD
  7961                           fsr2h	equ	0xFDA
  7962                           fsr2l	equ	0xFD9
  7963                           status	equ	0xFD8
  7964                           
  7965 ;; *************** function i2_in_low_int *****************
  7966 ;; Defined at:
  7967 ;;		line 31 in file "../src/interrupts.c"
  7968 ;; Parameters:    Size  Location     Type
  7969 ;;		None
  7970 ;; Auto vars:     Size  Location     Type
  7971 ;;		None
  7972 ;; Return value:  Size  Location     Type
  7973 ;;                  2    2[BANK0 ] int 
  7974 ;; Registers used:
  7975 ;;		wreg, status,2, status,0, cstack
  7976 ;; Tracked objects:
  7977 ;;		On entry : 0/0
  7978 ;;		On exit  : 0/0
  7979 ;;		Unchanged: 0/0
  7980 ;; Data sizes:     COMRAM   BANK0   BANK1   BANK2   BANK3   BANK4   BANK5   BANK6   BANK7   BANK8   BANK9  BANK10  BANK1
      +1  BANK12  BANK13  BANK14
  7981 ;;      Params:         0       2       0       0       0       0       0       0       0       0       0       0       
      +0       0       0       0
  7982 ;;      Locals:         0       0       0       0       0       0       0       0       0       0       0       0       
      +0       0       0       0
  7983 ;;      Temps:          0       0       0       0       0       0       0       0       0       0       0       0       
      +0       0       0       0
  7984 ;;      Totals:         0       2       0       0       0       0       0       0       0       0       0       0       
      +0       0       0       0
  7985 ;;Total ram usage:        2 bytes
  7986 ;; Hardware stack levels used:    1
  7987 ;; Hardware stack levels required when called:    1
  7988 ;; This function calls:
  7989 ;;		i2_in_high_int
  7990 ;; This function is called by:
  7991 ;;		_SleepIfOkay
  7992 ;; This function uses a non-reentrant model
  7993 ;;
  7994                           
  7995                           	psect	text51
  7996  0014A6                     __ptext51:
  7997                           	opt stack 0
  7998  0014A6                     i2_in_low_int:
  7999                           	opt stack 18
  8000                           
  8001                           ;interrupts.c: 32: if (INTCONbits.GIEL == 1) {
  8002                           
  8003                           ;incstack = 0
  8004  0014A6  ACF2               	btfss	intcon,6,c	;volatile
  8005  0014A8  D007               	goto	i2l2319
  8006                           
  8007                           ;interrupts.c: 33: return (0);
  8008  0014AA  0E00               	movlw	0
  8009  0014AC  0100               	movlb	0	; () banked
  8010  0014AE  6F9A               	movwf	(?i2_in_low_int+1)& (0+255),b
  8011  0014B0  0E00               	movlw	0
  8012  0014B2  0100               	movlb	0	; () banked
  8013  0014B4  6F99               	movwf	?i2_in_low_int& (0+255),b
  8014  0014B6  0012               	return	
  8015  0014B8                     i2l2319:
  8016  0014B8  EC72  F00C         	call	i2_in_high_int	;wreg free
  8017  0014BC  0100               	movlb	0	; () banked
  8018  0014BE  5198               	movf	(?i2_in_high_int+1)& (0+255),w,b
  8019  0014C0  0100               	movlb	0	; () banked
  8020  0014C2  1197               	iorwf	?i2_in_high_int& (0+255),w,b
  8021  0014C4  B4D8               	btfsc	status,2,c
  8022  0014C6  D007               	goto	i2l2327
  8023                           
  8024                           ; BSR set to: 0
  8025                           ;interrupts.c: 35: return (0);
  8026  0014C8  0E00               	movlw	0
  8027  0014CA  0100               	movlb	0	; () banked
  8028  0014CC  6F9A               	movwf	(?i2_in_low_int+1)& (0+255),b
  8029  0014CE  0E00               	movlw	0
  8030  0014D0  0100               	movlb	0	; () banked
  8031  0014D2  6F99               	movwf	?i2_in_low_int& (0+255),b
  8032  0014D4  0012               	return	
  8033  0014D6                     i2l2327:
  8034                           
  8035                           ; BSR set to: 0
  8036                           ;interrupts.c: 37: return (1);
  8037  0014D6  0E00               	movlw	0
  8038  0014D8  0100               	movlb	0	; () banked
  8039  0014DA  6F9A               	movwf	(?i2_in_low_int+1)& (0+255),b
  8040  0014DC  0E01               	movlw	1
  8041  0014DE  0100               	movlb	0	; () banked
  8042  0014E0  6F99               	movwf	?i2_in_low_int& (0+255),b
  8043  0014E2  0012               	return	
  8044  0014E4                     __end_ofi2_in_low_int:
  8045                           	opt stack 0
  8046                           pclatu	equ	0xFFB
  8047                           pclath	equ	0xFFA
  8048                           tblptru	equ	0xFF8
  8049                           tblptrh	equ	0xFF7
  8050                           tblptrl	equ	0xFF6
  8051                           tablat	equ	0xFF5
  8052                           prodh	equ	0xFF4
  8053                           prodl	equ	0xFF3
  8054                           intcon	equ	0xFF2
  8055                           intcon2	equ	0xFF1
  8056                           postinc0	equ	0xFEE
  8057                           fsr0h	equ	0xFEA
  8058                           fsr0l	equ	0xFE9
  8059                           wreg	equ	0xFE8
  8060                           indf1	equ	0xFE7
  8061                           fsr1h	equ	0xFE2
  8062                           fsr1l	equ	0xFE1
  8063                           bsr	equ	0xFE0
  8064                           indf2	equ	0xFDF
  8065                           postinc2	equ	0xFDE
  8066                           postdec2	equ	0xFDD
  8067                           fsr2h	equ	0xFDA
  8068                           fsr2l	equ	0xFD9
  8069                           status	equ	0xFD8
  8070                           
  8071 ;; *************** function i2_in_high_int *****************
  8072 ;; Defined at:
  8073 ;;		line 23 in file "../src/interrupts.c"
  8074 ;; Parameters:    Size  Location     Type
  8075 ;;		None
  8076 ;; Auto vars:     Size  Location     Type
  8077 ;;		None
  8078 ;; Return value:  Size  Location     Type
  8079 ;;                  2    0[BANK0 ] int 
  8080 ;; Registers used:
  8081 ;;		wreg, status,2
  8082 ;; Tracked objects:
  8083 ;;		On entry : 0/0
  8084 ;;		On exit  : 0/0
  8085 ;;		Unchanged: 0/0
  8086 ;; Data sizes:     COMRAM   BANK0   BANK1   BANK2   BANK3   BANK4   BANK5   BANK6   BANK7   BANK8   BANK9  BANK10  BANK1
      +1  BANK12  BANK13  BANK14
  8087 ;;      Params:         0       2       0       0       0       0       0       0       0       0       0       0       
      +0       0       0       0
  8088 ;;      Locals:         0       0       0       0       0       0       0       0       0       0       0       0       
      +0       0       0       0
  8089 ;;      Temps:          0       0       0       0       0       0       0       0       0       0       0       0       
      +0       0       0       0
  8090 ;;      Totals:         0       2       0       0       0       0       0       0       0       0       0       0       
      +0       0       0       0
  8091 ;;Total ram usage:        2 bytes
  8092 ;; Hardware stack levels used:    1
  8093 ;; This function calls:
  8094 ;;		Nothing
  8095 ;; This function is called by:
  8096 ;;		_SleepIfOkay
  8097 ;;		i2_in_low_int
  8098 ;; This function uses a non-reentrant model
  8099 ;;
  8100                           
  8101                           	psect	text52
  8102  0018E4                     __ptext52:
  8103                           	opt stack 0
  8104  0018E4                     i2_in_high_int:
  8105                           	opt stack 18
  8106                           
  8107                           ;interrupts.c: 24: return (!INTCONbits.GIEH);
  8108                           
  8109                           ; BSR set to: 0
  8110                           ;incstack = 0
  8111  0018E4  0E00               	movlw	0
  8112  0018E6  AEF2               	btfss	intcon,7,c	;volatile
  8113  0018E8  0E01               	movlw	1
  8114  0018EA  0100               	movlb	0	; () banked
  8115  0018EC  6F97               	movwf	?i2_in_high_int& (0+255),b
  8116  0018EE  0100               	movlb	0	; () banked
  8117  0018F0  6B98               	clrf	(?i2_in_high_int+1)& (0+255),b
  8118  0018F2  0012               	return	
  8119  0018F4                     __end_ofi2_in_high_int:
  8120                           	opt stack 0
  8121                           pclatu	equ	0xFFB
  8122                           pclath	equ	0xFFA
  8123                           tblptru	equ	0xFF8
  8124                           tblptrh	equ	0xFF7
  8125                           tblptrl	equ	0xFF6
  8126                           tablat	equ	0xFF5
  8127                           prodh	equ	0xFF4
  8128                           prodl	equ	0xFF3
  8129                           intcon	equ	0xFF2
  8130                           intcon2	equ	0xFF1
  8131                           postinc0	equ	0xFEE
  8132                           fsr0h	equ	0xFEA
  8133                           fsr0l	equ	0xFE9
  8134                           wreg	equ	0xFE8
  8135                           indf1	equ	0xFE7
  8136                           fsr1h	equ	0xFE2
  8137                           fsr1l	equ	0xFE1
  8138                           bsr	equ	0xFE0
  8139                           indf2	equ	0xFDF
  8140                           postinc2	equ	0xFDE
  8141                           postdec2	equ	0xFDD
  8142                           fsr2h	equ	0xFDA
  8143                           fsr2l	equ	0xFD9
  8144                           status	equ	0xFD8
  8145                           
  8146 ;; *************** function i2_check_msg *****************
  8147 ;; Defined at:
  8148 ;;		line 285 in file "../src/messages.c"
  8149 ;; Parameters:    Size  Location     Type
  8150 ;;  qptr            2    0[BANK0 ] PTR struct __msg_queue
  8151 ;;		 -> ToMainHigh_MQ(54), ToMainLow_MQ(54), 
  8152 ;; Auto vars:     Size  Location     Type
  8153 ;;		None
  8154 ;; Return value:  Size  Location     Type
  8155 ;;                  1    wreg      unsigned char 
  8156 ;; Registers used:
  8157 ;;		wreg, fsr2l, fsr2h, status,2, status,0, prodl, prodh
  8158 ;; Tracked objects:
  8159 ;;		On entry : 0/0
  8160 ;;		On exit  : 0/0
  8161 ;;		Unchanged: 0/0
  8162 ;; Data sizes:     COMRAM   BANK0   BANK1   BANK2   BANK3   BANK4   BANK5   BANK6   BANK7   BANK8   BANK9  BANK10  BANK1
      +1  BANK12  BANK13  BANK14
  8163 ;;      Params:         0       2       0       0       0       0       0       0       0       0       0       0       
      +0       0       0       0
  8164 ;;      Locals:         0       0       0       0       0       0       0       0       0       0       0       0       
      +0       0       0       0
  8165 ;;      Temps:          0       1       0       0       0       0       0       0       0       0       0       0       
      +0       0       0       0
  8166 ;;      Totals:         0       3       0       0       0       0       0       0       0       0       0       0       
      +0       0       0       0
  8167 ;;Total ram usage:        3 bytes
  8168 ;; Hardware stack levels used:    1
  8169 ;; This function calls:
  8170 ;;		Nothing
  8171 ;; This function is called by:
  8172 ;;		_SleepIfOkay
  8173 ;; This function uses a non-reentrant model
  8174 ;;
  8175                           
  8176                           	psect	text53
  8177  001632                     __ptext53:
  8178                           	opt stack 0
  8179  001632                     i2_check_msg:
  8180                           	opt stack 19
  8181                           
  8182                           ;messages.c: 286: return (qptr->queue[qptr->cur_read_ind].full);
  8183                           
  8184                           ; BSR set to: 0
  8185                           ;incstack = 0
  8186  001632  0100               	movlb	0	; () banked
  8187  001634  EE20 F035          	lfsr	2,53
  8188  001638  0100               	movlb	0	; () banked
  8189  00163A  5197               	movf	i2check_msg@qptr& (0+255),w,b
  8190  00163C  26D9               	addwf	fsr2l,f,c
  8191  00163E  0100               	movlb	0	; () banked
  8192  001640  5198               	movf	(i2check_msg@qptr+1)& (0+255),w,b
  8193  001642  22DA               	addwfc	fsr2h,f,c
  8194  001644  50DF               	movf	indf2,w,c
  8195  001646  0100               	movlb	0	; () banked
  8196  001648  6F99               	movwf	??i2_check_msg& (0+255),b
  8197  00164A  0100               	movlb	0	; () banked
  8198  00164C  5199               	movf	??i2_check_msg& (0+255),w,b
  8199  00164E  0D0D               	mullw	13
  8200  001650  50F3               	movf	prodl,w,c
  8201  001652  0100               	movlb	0	; () banked
  8202  001654  2597               	addwf	i2check_msg@qptr& (0+255),w,b
  8203  001656  6ED9               	movwf	fsr2l,c
  8204  001658  50F4               	movf	prodh,w,c
  8205  00165A  0100               	movlb	0	; () banked
  8206  00165C  2198               	addwfc	(i2check_msg@qptr+1)& (0+255),w,b
  8207  00165E  6EDA               	movwf	fsr2h,c
  8208  001660  50DF               	movf	indf2,w,c
  8209  001662  0012               	return	
  8210  001664                     __end_ofi2_check_msg:
  8211                           	opt stack 0
  8212                           pclatu	equ	0xFFB
  8213                           pclath	equ	0xFFA
  8214                           tblptru	equ	0xFF8
  8215                           tblptrh	equ	0xFF7
  8216                           tblptrl	equ	0xFF6
  8217                           tablat	equ	0xFF5
  8218                           prodh	equ	0xFF4
  8219                           prodl	equ	0xFF3
  8220                           intcon	equ	0xFF2
  8221                           intcon2	equ	0xFF1
  8222                           postinc0	equ	0xFEE
  8223                           fsr0h	equ	0xFEA
  8224                           fsr0l	equ	0xFE9
  8225                           wreg	equ	0xFE8
  8226                           indf1	equ	0xFE7
  8227                           fsr1h	equ	0xFE2
  8228                           fsr1l	equ	0xFE1
  8229                           bsr	equ	0xFE0
  8230                           indf2	equ	0xFDF
  8231                           postinc2	equ	0xFDE
  8232                           postdec2	equ	0xFDD
  8233                           fsr2h	equ	0xFDA
  8234                           fsr2l	equ	0xFD9
  8235                           status	equ	0xFD8
  8236                           
  8237 ;; *************** function _enter_sleep_mode *****************
  8238 ;; Defined at:
  8239 ;;		line 267 in file "../src/messages.c"
  8240 ;; Parameters:    Size  Location     Type
  8241 ;;		None
  8242 ;; Auto vars:     Size  Location     Type
  8243 ;;		None
  8244 ;; Return value:  Size  Location     Type
  8245 ;;		None               void
  8246 ;; Registers used:
  8247 ;;		None
  8248 ;; Tracked objects:
  8249 ;;		On entry : 0/0
  8250 ;;		On exit  : 0/0
  8251 ;;		Unchanged: 0/0
  8252 ;; Data sizes:     COMRAM   BANK0   BANK1   BANK2   BANK3   BANK4   BANK5   BANK6   BANK7   BANK8   BANK9  BANK10  BANK1
      +1  BANK12  BANK13  BANK14
  8253 ;;      Params:         0       0       0       0       0       0       0       0       0       0       0       0       
      +0       0       0       0
  8254 ;;      Locals:         0       0       0       0       0       0       0       0       0       0       0       0       
      +0       0       0       0
  8255 ;;      Temps:          0       0       0       0       0       0       0       0       0       0       0       0       
      +0       0       0       0
  8256 ;;      Totals:         0       0       0       0       0       0       0       0       0       0       0       0       
      +0       0       0       0
  8257 ;;Total ram usage:        0 bytes
  8258 ;; Hardware stack levels used:    1
  8259 ;; This function calls:
  8260 ;;		Nothing
  8261 ;; This function is called by:
  8262 ;;		_SleepIfOkay
  8263 ;; This function uses a non-reentrant model
  8264 ;;
  8265                           
  8266                           	psect	text54
  8267  0018FC                     __ptext54:
  8268                           	opt stack 0
  8269  0018FC                     _enter_sleep_mode:
  8270                           	opt stack 19
  8271                           
  8272                           ;messages.c: 269: OSCCONbits.IDLEN = 1;
  8273                           
  8274                           ; BSR set to: 0
  8275                           ;incstack = 0
  8276  0018FC  8ED3               	bsf	4051,7,c	;volatile
  8277  0018FE  0003               	sleep		;# 
  8278  001900  0012               	return	
  8279  001902                     __end_of_enter_sleep_mode:
  8280                           	opt stack 0
  8281  0000                     pclatu	equ	0xFFB
  8282                           pclath	equ	0xFFA
  8283                           tblptru	equ	0xFF8
  8284                           tblptrh	equ	0xFF7
  8285                           tblptrl	equ	0xFF6
  8286                           tablat	equ	0xFF5
  8287                           prodh	equ	0xFF4
  8288                           prodl	equ	0xFF3
  8289                           intcon	equ	0xFF2
  8290                           intcon2	equ	0xFF1
  8291                           postinc0	equ	0xFEE
  8292                           fsr0h	equ	0xFEA
  8293                           fsr0l	equ	0xFE9
  8294                           wreg	equ	0xFE8
  8295                           indf1	equ	0xFE7
  8296                           fsr1h	equ	0xFE2
  8297                           fsr1l	equ	0xFE1
  8298                           bsr	equ	0xFE0
  8299                           indf2	equ	0xFDF
  8300                           postinc2	equ	0xFDE
  8301                           postdec2	equ	0xFDD
  8302                           fsr2h	equ	0xFDA
  8303                           fsr2l	equ	0xFD9
  8304                           status	equ	0xFD8
  8305                           pclatu	equ	0xFFB
  8306                           pclath	equ	0xFFA
  8307                           tblptru	equ	0xFF8
  8308                           tblptrh	equ	0xFF7
  8309                           tblptrl	equ	0xFF6
  8310                           tablat	equ	0xFF5
  8311                           prodh	equ	0xFF4
  8312                           prodl	equ	0xFF3
  8313                           intcon	equ	0xFF2
  8314                           intcon2	equ	0xFF1
  8315                           postinc0	equ	0xFEE
  8316                           fsr0h	equ	0xFEA
  8317                           fsr0l	equ	0xFE9
  8318                           wreg	equ	0xFE8
  8319                           indf1	equ	0xFE7
  8320                           fsr1h	equ	0xFE2
  8321                           fsr1l	equ	0xFE1
  8322                           bsr	equ	0xFE0
  8323                           indf2	equ	0xFDF
  8324                           postinc2	equ	0xFDE
  8325                           postdec2	equ	0xFDD
  8326                           fsr2h	equ	0xFDA
  8327                           fsr2l	equ	0xFD9
  8328                           status	equ	0xFD8
  8329                           
  8330                           	psect	param0
  8331  0000                     pclatu	equ	0xFFB
  8332                           pclath	equ	0xFFA
  8333                           tblptru	equ	0xFF8
  8334                           tblptrh	equ	0xFF7
  8335                           tblptrl	equ	0xFF6
  8336                           tablat	equ	0xFF5
  8337                           prodh	equ	0xFF4
  8338                           prodl	equ	0xFF3
  8339                           intcon	equ	0xFF2
  8340                           intcon2	equ	0xFF1
  8341                           postinc0	equ	0xFEE
  8342                           fsr0h	equ	0xFEA
  8343                           fsr0l	equ	0xFE9
  8344                           wreg	equ	0xFE8
  8345                           indf1	equ	0xFE7
  8346                           fsr1h	equ	0xFE2
  8347                           fsr1l	equ	0xFE1
  8348                           bsr	equ	0xFE0
  8349                           indf2	equ	0xFDF
  8350                           postinc2	equ	0xFDE
  8351                           postdec2	equ	0xFDD
  8352                           fsr2h	equ	0xFDA
  8353                           fsr2l	equ	0xFD9
  8354                           status	equ	0xFD8


Data Sizes:
    Strings     0
    Constant    0
    Data        0
    BSS         272
    Persistent  4
    Stack       0

Auto Spaces:
    Space          Size  Autos    Used
    COMRAM           95     48      51
    BANK0           160     53     110
    BANK1           256     32     194
    BANK2           256     67     121
    BANK3           256      0       0
    BANK4           256      0       0
    BANK5           256      0       0
    BANK6           256      0       0
    BANK7           256      0       0
    BANK8           256      0       0
    BANK9           256      0       0
    BANK10          256      0       0
    BANK11          256      0       0
    BANK12          256      0       0
    BANK13          256      0       0
    BANK14          192      0       0

Pointer List with Targets:

    timer1_lthread@msgbuffer	PTR unsigned char  size(2) Largest target is 11
		 -> main@msgbuffer(BANK2[11]), 

    timer0_lthread@tptr	PTR struct __timer0_thread_struct size(2) Largest target is 2
		 -> main@t0thread_data(BANK2[2]), 

    memcpy@d1	PTR void  size(2) Largest target is 54
		 -> main@uc.queue(COMRAM[52]), main@ic.queue(COMRAM[52]), main@t1thread_data.queue(COMRAM[52]), FromMainLow_MQ.queue(BANK1[52]), 
		 -> FromMainHigh_MQ.queue(BANK2[52]), SensorData_MQ.queue(BANK1[52]), ToMainHigh_MQ.queue(BANK1[52]), ToMainLow_MQ.queue(BANK0[52]), 
		 -> NULL(NULL[0]), FromMainHigh_MQ(BANK2[54]), FromMainLow_MQ(BANK1[54]), SensorData_sendmsg@qptr.queue(COMRAM[52]), 
		 -> SensorData_sendmsg@qptr(COMRAM[2]), ToMainHigh_MQ(BANK1[54]), ToMainLow_MQ(BANK0[54]), main@msgbuffer(BANK2[11]), 
		 -> main@uc(BANK2[14]), 

    memcpy@d	PTR unsigned char  size(2) Largest target is 54
		 -> main@uc.queue(COMRAM[52]), main@ic.queue(COMRAM[52]), main@t1thread_data.queue(COMRAM[52]), FromMainLow_MQ.queue(BANK1[52]), 
		 -> FromMainHigh_MQ.queue(BANK2[52]), SensorData_MQ.queue(BANK1[52]), ToMainHigh_MQ.queue(BANK1[52]), ToMainLow_MQ.queue(BANK0[52]), 
		 -> NULL(NULL[0]), FromMainHigh_MQ(BANK2[54]), FromMainLow_MQ(BANK1[54]), SensorData_sendmsg@qptr.queue(COMRAM[52]), 
		 -> SensorData_sendmsg@qptr(COMRAM[2]), ToMainHigh_MQ(BANK1[54]), ToMainLow_MQ(BANK0[54]), main@msgbuffer(BANK2[11]), 
		 -> main@uc(BANK2[14]), 

    memcpy@s1	PTR const void  size(2) Largest target is 54
		 -> SensorData_sendmsg@qptr.data(COMRAM[10]), SensorData_sendmsg@qptr.queue.data(COMRAM[10]), main@t1thread_data.queue.data(COMRAM[10]), main@ic.queue.data(COMRAM[10]), 
		 -> main@uc.queue.data(COMRAM[10]), SensorData_MQ.data(BANK1[10]), SensorData_MQ.queue.data(BANK1[10]), ToMainLow_MQ.data(BANK0[10]), 
		 -> ToMainHigh_MQ.data(BANK1[10]), FromMainLow_MQ.data(BANK1[10]), FromMainHigh_MQ.data(BANK2[10]), ToMainLow_MQ.queue.data(BANK0[10]), 
		 -> ToMainHigh_MQ.queue.data(BANK1[10]), FromMainHigh_MQ.queue.data(BANK2[10]), FromMainLow_MQ.queue.data(BANK1[10]), NULL(NULL[0]), 
		 -> uart_recv_int_handler@readin(COMRAM[1]), i2c_int_handler@error_buf(BANK0[3]), FromMainHigh_MQ(BANK2[54]), FromMainLow_MQ(BANK1[54]), 
		 -> SensorData_MQ(BANK1[54]), SensorData_sendmsg@qptr(COMRAM[2]), ToMainHigh_MQ(BANK1[54]), ToMainLow_MQ(BANK0[54]), 
		 -> main@msgbuffer(BANK2[11]), main@t1thread_data(BANK2[2]), main@ic(BANK2[31]), 

    memcpy@s	PTR const unsigned char  size(2) Largest target is 54
		 -> SensorData_sendmsg@qptr.data(COMRAM[10]), SensorData_sendmsg@qptr.queue.data(COMRAM[10]), main@t1thread_data.queue.data(COMRAM[10]), main@ic.queue.data(COMRAM[10]), 
		 -> main@uc.queue.data(COMRAM[10]), SensorData_MQ.data(BANK1[10]), SensorData_MQ.queue.data(BANK1[10]), ToMainLow_MQ.data(BANK0[10]), 
		 -> ToMainHigh_MQ.data(BANK1[10]), FromMainLow_MQ.data(BANK1[10]), FromMainHigh_MQ.data(BANK2[10]), ToMainLow_MQ.queue.data(BANK0[10]), 
		 -> ToMainHigh_MQ.queue.data(BANK1[10]), FromMainHigh_MQ.queue.data(BANK2[10]), FromMainLow_MQ.queue.data(BANK1[10]), NULL(NULL[0]), 
		 -> uart_recv_int_handler@readin(COMRAM[1]), i2c_int_handler@error_buf(BANK0[3]), FromMainHigh_MQ(BANK2[54]), FromMainLow_MQ(BANK1[54]), 
		 -> SensorData_MQ(BANK1[54]), SensorData_sendmsg@qptr(COMRAM[2]), ToMainHigh_MQ(BANK1[54]), ToMainLow_MQ(BANK0[54]), 
		 -> main@msgbuffer(BANK2[11]), main@t1thread_data(BANK2[2]), main@ic(BANK2[31]), 

    timer1_lthread@tptr	PTR struct __timer1_thread_struct size(2) Largest target is 2
		 -> main@t1thread_data(BANK2[2]), 

    init_timer1_lthread@tptr	PTR struct __timer1_thread_struct size(2) Largest target is 2
		 -> main@t1thread_data(BANK2[2]), 

    timer0_lthread@msgbuffer	PTR unsigned char  size(2) Largest target is 11
		 -> main@msgbuffer(BANK2[11]), 

    timer0_lthread@msgval	PTR unsigned int  size(2) Largest target is 11
		 -> main@msgbuffer(BANK2[11]), 

    uart_send@msg_buffer	PTR unsigned char  size(2) Largest target is 11
		 -> main@msgbuffer(BANK2[11]), 

    init_uart_recv@uc	PTR struct __uart_comm size(2) Largest target is 14
		 -> main@uc(BANK2[14]), 

    uc_ptr	PTR struct __uart_comm size(2) Largest target is 14
		 -> NULL(NULL[0]), main@uc(BANK2[14]), 

    init_i2c@ic	PTR struct __i2c_comm size(2) Largest target is 31
		 -> main@ic(BANK2[31]), 

    start_i2c_slave_reply@msg	PTR unsigned char  size(2) Largest target is 2
		 -> main@uc.queue(COMRAM[52]), main@ic.queue(COMRAM[52]), main@t1thread_data.queue(COMRAM[52]), FromMainLow_MQ.queue(BANK1[52]), 
		 -> FromMainHigh_MQ.queue(BANK2[52]), SensorData_MQ.queue(BANK1[52]), ToMainHigh_MQ.queue(BANK1[52]), ToMainLow_MQ.queue(BANK0[52]), 
		 -> NULL(NULL[0]), SensorData_sendmsg@qptr.queue(COMRAM[52]), SensorData_sendmsg@qptr(COMRAM[2]), main@forward(BANK2[2]), 

    ic_ptr	PTR struct __i2c_comm size(2) Largest target is 31
		 -> NULL(NULL[0]), main@ic(BANK2[31]), 

    check_msg@qptr	PTR struct __msg_queue size(2) Largest target is 54
		 -> ToMainHigh_MQ(BANK1[54]), ToMainLow_MQ(BANK0[54]), 

    FromMainHigh_sendmsg@data	PTR void  size(2) Largest target is 2
		 -> main@t1thread_data(BANK2[2]), 

    FromMainLow_recvmsg@data	PTR void  size(2) Largest target is 14
		 -> NULL(NULL[0]), main@uc(BANK2[14]), 

    FromMainLow_recvmsg@msgtype	PTR unsigned char  size(2) Largest target is 3775
		 -> RAM(DATA[3775]), 

    FromMainLow_sendmsg@data	PTR void  size(2) Largest target is 11
		 -> main@msgbuffer(BANK2[11]), 

    ToMainHigh_recvmsg@data	PTR void  size(2) Largest target is 11
		 -> main@msgbuffer(BANK2[11]), 

    ToMainHigh_recvmsg@msgtype	PTR unsigned char  size(2) Largest target is 1
		 -> main@msgtype(BANK2[1]), 

    ToMainHigh_sendmsg@data	PTR void  size(2) Largest target is 31
		 -> NULL(NULL[0]), i2c_int_handler@error_buf(BANK0[3]), main@ic(BANK2[31]), 

    ToMainLow_recvmsg@data	PTR void  size(2) Largest target is 11
		 -> main@msgbuffer(BANK2[11]), 

    ToMainLow_recvmsg@msgtype	PTR unsigned char  size(2) Largest target is 3775
		 -> RAM(DATA[3775]), main@msgtype(BANK2[1]), 

    ToMainLow_sendmsg@data	PTR void  size(2) Largest target is 1
		 -> NULL(NULL[0]), uart_recv_int_handler@readin(COMRAM[1]), 

    recv_msg@msgtype	PTR unsigned char  size(2) Largest target is 3775
		 -> RAM(DATA[3775]), main@msgtype(BANK2[1]), 

    recv_msg@data	PTR void  size(2) Largest target is 14
		 -> NULL(NULL[0]), main@msgbuffer(BANK2[11]), main@uc(BANK2[14]), 

    recv_msg@qmsg	PTR struct __msg size(2) Largest target is 54
		 -> FromMainLow_MQ.queue(BANK1[52]), FromMainHigh_MQ.queue(BANK2[52]), SensorData_MQ.queue(BANK1[52]), ToMainHigh_MQ.queue(BANK1[52]), 
		 -> ToMainLow_MQ.queue(BANK0[52]), FromMainHigh_MQ(BANK2[54]), FromMainLow_MQ(BANK1[54]), SensorData_MQ(BANK1[54]), 
		 -> ToMainHigh_MQ(BANK1[54]), ToMainLow_MQ(BANK0[54]), 

    recv_msg@qptr	PTR struct __msg_queue size(2) Largest target is 54
		 -> FromMainHigh_MQ(BANK2[54]), FromMainLow_MQ(BANK1[54]), SensorData_MQ(BANK1[54]), ToMainHigh_MQ(BANK1[54]), 
		 -> ToMainLow_MQ(BANK0[54]), 

    sp__memcpy	PTR void  size(2) Largest target is 54
		 -> main@uc.queue(COMRAM[52]), main@ic.queue(COMRAM[52]), main@t1thread_data.queue(COMRAM[52]), FromMainLow_MQ.queue(BANK1[52]), 
		 -> FromMainHigh_MQ.queue(BANK2[52]), SensorData_MQ.queue(BANK1[52]), ToMainHigh_MQ.queue(BANK1[52]), ToMainLow_MQ.queue(BANK0[52]), 
		 -> NULL(NULL[0]), FromMainHigh_MQ(BANK2[54]), FromMainLow_MQ(BANK1[54]), SensorData_sendmsg@qptr.queue(COMRAM[52]), 
		 -> SensorData_sendmsg@qptr(COMRAM[2]), ToMainHigh_MQ(BANK1[54]), ToMainLow_MQ(BANK0[54]), main@msgbuffer(BANK2[11]), 
		 -> main@uc(BANK2[14]), 

    send_msg@data	PTR void  size(2) Largest target is 31
		 -> NULL(NULL[0]), uart_recv_int_handler@readin(COMRAM[1]), i2c_int_handler@error_buf(BANK0[3]), main@msgbuffer(BANK2[11]), 
		 -> main@t1thread_data(BANK2[2]), main@ic(BANK2[31]), 

    send_msg@qmsg	PTR struct __msg size(2) Largest target is 54
		 -> FromMainLow_MQ.queue(BANK1[52]), FromMainHigh_MQ.queue(BANK2[52]), ToMainHigh_MQ.queue(BANK1[52]), ToMainLow_MQ.queue(BANK0[52]), 
		 -> FromMainHigh_MQ(BANK2[54]), FromMainLow_MQ(BANK1[54]), ToMainHigh_MQ(BANK1[54]), ToMainLow_MQ(BANK0[54]), 

    send_msg@qptr	PTR struct __msg_queue size(2) Largest target is 54
		 -> FromMainHigh_MQ(BANK2[54]), FromMainLow_MQ(BANK1[54]), ToMainHigh_MQ(BANK1[54]), ToMainLow_MQ(BANK0[54]), 

    init_queue@qptr	PTR struct __msg_queue size(2) Largest target is 54
		 -> FromMainHigh_MQ(BANK2[54]), FromMainLow_MQ(BANK1[54]), SensorData_MQ(BANK1[54]), ToMainHigh_MQ(BANK1[54]), 
		 -> ToMainLow_MQ(BANK0[54]), 


Critical Paths under _main in COMRAM

    None.

Critical Paths under _InterruptHandlerHigh in COMRAM

    None.

Critical Paths under _InterruptHandlerLow in COMRAM

    _InterruptHandlerLow->_uart_trans_int_handler
    _uart_trans_int_handler->_FromMainLow_recvmsg
    _FromMainLow_recvmsg->i1_recv_msg
    i1_recv_msg->i1_memcpy
    _uart_recv_int_handler->_ToMainLow_sendmsg
    _ToMainLow_sendmsg->i1_send_msg
    i1_send_msg->i1_memcpy
    _timer1_int_handler->_ReadTimer1
    _timer1_int_handler->_WriteTimer1

Critical Paths under _main in BANK0

    _main->_Open1USART
    _main->_OpenTimer1
    _main->_ToMainHigh_recvmsg
    _main->_ToMainLow_recvmsg
    _main->_start_i2c_slave_reply
    _main->_timer1_lthread
    _uart_send->_FromMainLow_sendmsg
    _FromMainLow_sendmsg->_send_msg
    _timer1_lthread->_FromMainHigh_sendmsg
    _FromMainHigh_sendmsg->_send_msg
    _init_queues->_init_queue
    _block_on_To_msgqueues->_check_msg
    _in_main->_in_high_int
    _in_low_int->_in_high_int
    _ToMainLow_recvmsg->_recv_msg
    _ToMainHigh_recvmsg->_recv_msg

Critical Paths under _InterruptHandlerHigh in BANK0

    _InterruptHandlerHigh->_i2c_int_handler
    _timer0_int_handler->_WriteTimer0
    _i2c_int_handler->_ToMainHigh_sendmsg
    _ToMainHigh_sendmsg->i2_send_msg
    i2_send_msg->i2_memcpy
    _SleepIfOkay->i2_in_low_int
    i2_in_low_int->i2_in_high_int

Critical Paths under _InterruptHandlerLow in BANK0

    None.

Critical Paths under _main in BANK1

    _main->_timer1_lthread
    _uart_send->_FromMainLow_sendmsg
    _FromMainLow_sendmsg->_send_msg
    _timer1_lthread->_FromMainHigh_sendmsg
    _FromMainHigh_sendmsg->_send_msg
    _send_msg->_memcpy
    _block_on_To_msgqueues->_in_main
    _in_main->_in_low_int
    _ToMainLow_recvmsg->_recv_msg
    _ToMainHigh_recvmsg->_recv_msg
    _recv_msg->_memcpy

Critical Paths under _InterruptHandlerHigh in BANK1

    None.

Critical Paths under _InterruptHandlerLow in BANK1

    None.

Critical Paths under _main in BANK2

    None.

Critical Paths under _InterruptHandlerHigh in BANK2

    None.

Critical Paths under _InterruptHandlerLow in BANK2

    None.

Critical Paths under _main in BANK3

    None.

Critical Paths under _InterruptHandlerHigh in BANK3

    None.

Critical Paths under _InterruptHandlerLow in BANK3

    None.

Critical Paths under _main in BANK4

    None.

Critical Paths under _InterruptHandlerHigh in BANK4

    None.

Critical Paths under _InterruptHandlerLow in BANK4

    None.

Critical Paths under _main in BANK5

    None.

Critical Paths under _InterruptHandlerHigh in BANK5

    None.

Critical Paths under _InterruptHandlerLow in BANK5

    None.

Critical Paths under _main in BANK6

    None.

Critical Paths under _InterruptHandlerHigh in BANK6

    None.

Critical Paths under _InterruptHandlerLow in BANK6

    None.

Critical Paths under _main in BANK7

    None.

Critical Paths under _InterruptHandlerHigh in BANK7

    None.

Critical Paths under _InterruptHandlerLow in BANK7

    None.

Critical Paths under _main in BANK8

    None.

Critical Paths under _InterruptHandlerHigh in BANK8

    None.

Critical Paths under _InterruptHandlerLow in BANK8

    None.

Critical Paths under _main in BANK9

    None.

Critical Paths under _InterruptHandlerHigh in BANK9

    None.

Critical Paths under _InterruptHandlerLow in BANK9

    None.

Critical Paths under _main in BANK10

    None.

Critical Paths under _InterruptHandlerHigh in BANK10

    None.

Critical Paths under _InterruptHandlerLow in BANK10

    None.

Critical Paths under _main in BANK11

    None.

Critical Paths under _InterruptHandlerHigh in BANK11

    None.

Critical Paths under _InterruptHandlerLow in BANK11

    None.

Critical Paths under _main in BANK12

    None.

Critical Paths under _InterruptHandlerHigh in BANK12

    None.

Critical Paths under _InterruptHandlerLow in BANK12

    None.

Critical Paths under _main in BANK13

    None.

Critical Paths under _InterruptHandlerHigh in BANK13

    None.

Critical Paths under _InterruptHandlerLow in BANK13

    None.

Critical Paths under _main in BANK14

    None.

Critical Paths under _InterruptHandlerHigh in BANK14

    None.

Critical Paths under _InterruptHandlerLow in BANK14

    None.

Call Graph Tables:

 ---------------------------------------------------------------------------------
 (Depth) Function   	        Calls       Base Space   Used Autos Params    Refs
 ---------------------------------------------------------------------------------
 (0) _main                                                72    72      0   18087
                                              0 BANK2     67    67      0
                           _ADC_Init
                _FromMainLow_sendmsg
                         _Open1USART
                         _OpenTimer0
                         _OpenTimer1
                 _ToMainHigh_recvmsg
                  _ToMainLow_recvmsg
              _block_on_To_msgqueues
                  _enable_interrupts
                _i2c_configure_slave
                           _init_i2c
                        _init_queues
                _init_timer1_lthread
                     _init_uart_recv
              _start_i2c_slave_reply
                     _timer0_lthread
                     _timer1_lthread
                          _uart_send
 ---------------------------------------------------------------------------------
 (1) _uart_send                                            4     0      4    2733
                                             24 BANK1      4     0      4
                _FromMainLow_sendmsg
 ---------------------------------------------------------------------------------
 (2) _FromMainLow_sendmsg                                  4     1      3    2541
                                             51 BANK0      1     1      0
                                             21 BANK1      3     0      3
                           _send_msg
 ---------------------------------------------------------------------------------
 (1) _timer1_lthread                                       9     1      8    3100
                                             52 BANK0      1     1      0
                                             24 BANK1      8     0      8
               _FromMainHigh_sendmsg
                            ___lwmod
 ---------------------------------------------------------------------------------
 (2) ___lwmod                                              5     1      4     302
                                             50 BANK0      1     1      0
                                              0 BANK1      4     0      4
 ---------------------------------------------------------------------------------
 (2) _FromMainHigh_sendmsg                                 4     1      3    2411
                                             51 BANK0      1     1      0
                                             21 BANK1      3     0      3
                           _send_msg
 ---------------------------------------------------------------------------------
 (3) _send_msg                                            12     6      6    2188
                                             50 BANK0      1     1      0
                                             10 BANK1     11     5      6
                             _memcpy
 ---------------------------------------------------------------------------------
 (1) _timer0_lthread                                      10     2      8     294
                                             50 BANK0      2     2      0
                                              0 BANK1      8     0      8
 ---------------------------------------------------------------------------------
 (1) _start_i2c_slave_reply                                5     3      2     223
                                             50 BANK0      3     1      2
                                              0 BANK1      2     2      0
 ---------------------------------------------------------------------------------
 (1) _init_uart_recv                                       2     0      2      96
                                             50 BANK0      2     0      2
 ---------------------------------------------------------------------------------
 (1) _init_timer1_lthread                                  2     0      2      96
                                             50 BANK0      2     0      2
 ---------------------------------------------------------------------------------
 (1) _init_queues                                          0     0      0     517
                         _init_queue
 ---------------------------------------------------------------------------------
 (2) _init_queue                                           3     1      2     517
                                             50 BANK0      3     1      2
 ---------------------------------------------------------------------------------
 (1) _init_i2c                                             2     0      2      96
                                             50 BANK0      2     0      2
 ---------------------------------------------------------------------------------
 (1) _i2c_configure_slave                                  1     1      0      31
                                             50 BANK0      1     1      0
 ---------------------------------------------------------------------------------
 (1) _enable_interrupts                                    0     0      0       0
 ---------------------------------------------------------------------------------
 (1) _block_on_To_msgqueues                                0     0      0     283
                        _Delay1KTCYx
                          _check_msg
                            _in_main
 ---------------------------------------------------------------------------------
 (2) _in_main                                              2     0      2       0
                                              2 BANK1      2     0      2
                        _in_high_int
                         _in_low_int
 ---------------------------------------------------------------------------------
 (3) _in_low_int                                           2     0      2       0
                                              0 BANK1      2     0      2
                        _in_high_int
 ---------------------------------------------------------------------------------
 (4) _in_high_int                                          2     0      2       0
                                             50 BANK0      2     0      2
 ---------------------------------------------------------------------------------
 (2) _check_msg                                            3     1      2     252
                                             50 BANK0      3     1      2
 ---------------------------------------------------------------------------------
 (2) _Delay1KTCYx                                          1     1      0      31
                                             50 BANK0      1     1      0
 ---------------------------------------------------------------------------------
 (1) _ToMainLow_recvmsg                                    5     1      4    3102
                                             52 BANK0      1     1      0
                                             22 BANK1      4     0      4
                           _recv_msg
 ---------------------------------------------------------------------------------
 (1) _ToMainHigh_recvmsg                                   5     1      4    2842
                                             52 BANK0      1     1      0
                                             22 BANK1      4     0      4
                           _recv_msg
 ---------------------------------------------------------------------------------
 (2) _recv_msg                                            14     7      7    2619
                                             50 BANK0      2     2      0
                                             10 BANK1     12     5      7
                             _memcpy
 ---------------------------------------------------------------------------------
 (4) _memcpy                                              10     4      6     954
                                              0 BANK1     10     4      6
 ---------------------------------------------------------------------------------
 (1) _OpenTimer1                                           3     2      1     158
                                             50 BANK0      3     2      1
 ---------------------------------------------------------------------------------
 (1) _OpenTimer0                                           1     1      0      62
                                             50 BANK0      1     1      0
 ---------------------------------------------------------------------------------
 (1) _Open1USART                                           6     4      2     375
                                             50 BANK0      3     1      2
                                              0 BANK1      3     3      0
 ---------------------------------------------------------------------------------
 (1) _ADC_Init                                             0     0      0       0
 ---------------------------------------------------------------------------------
 Estimated maximum stack depth 4
 ---------------------------------------------------------------------------------
 (Depth) Function   	        Calls       Base Space   Used Autos Params    Refs
 ---------------------------------------------------------------------------------
 (5) _InterruptHandlerLow                                 17    17      0    2779
                                             31 COMRAM    17    17      0
                 _timer1_int_handler
              _uart_recv_int_handler
             _uart_trans_int_handler
 ---------------------------------------------------------------------------------
 (6) _uart_trans_int_handler                               2     2      0    1252
                                             29 COMRAM     2     2      0
                _FromMainLow_recvmsg
 ---------------------------------------------------------------------------------
 (7) _FromMainLow_recvmsg                                  5     1      4    1252
                                             24 COMRAM     5     1      4
                         i1_recv_msg
 ---------------------------------------------------------------------------------
 (8) i1_recv_msg                                          14     7      7    1029
                                             10 COMRAM    14     7      7
                           i1_memcpy
 ---------------------------------------------------------------------------------
 (6) _uart_recv_int_handler                                1     1      0    1409
                                             26 COMRAM     1     1      0
                         _Read1USART
                  _ToMainLow_sendmsg
 ---------------------------------------------------------------------------------
 (7) _ToMainLow_sendmsg                                    4     1      3    1351
                                             22 COMRAM     4     1      3
                         i1_send_msg
 ---------------------------------------------------------------------------------
 (8) i1_send_msg                                          12     6      6     998
                                             10 COMRAM    12     6      6
                           i1_memcpy
 ---------------------------------------------------------------------------------
 (9) i1_memcpy                                            10     4      6     384
                                              0 COMRAM    10     4      6
 ---------------------------------------------------------------------------------
 (7) _Read1USART                                           1     1      0      15
                                              0 COMRAM     1     1      0
 ---------------------------------------------------------------------------------
 (6) _timer1_int_handler                                   6     6      0     118
                                              4 COMRAM     5     5      0
                         _ReadTimer1
                        _WriteTimer1
 ---------------------------------------------------------------------------------
 (7) _WriteTimer1                                          4     2      2      88
                                              0 COMRAM     4     2      2
 ---------------------------------------------------------------------------------
 (7) _ReadTimer1                                           4     2      2      30
                                              0 COMRAM     4     2      2
 ---------------------------------------------------------------------------------
 Estimated maximum stack depth 9
 ---------------------------------------------------------------------------------
 (Depth) Function   	        Calls       Base Space   Used Autos Params    Refs
 ---------------------------------------------------------------------------------
 (10) _InterruptHandlerHigh                               14    14      0    2204
                                             36 BANK0     14    14      0
                        _SleepIfOkay
                    _i2c_int_handler
                 _timer0_int_handler
 ---------------------------------------------------------------------------------
 (11) _timer0_int_handler                                  6     6      0     121
                        _WriteTimer0
 ---------------------------------------------------------------------------------
 (12) _WriteTimer0                                         4     2      2     121
                                              0 BANK0      4     2      2
 ---------------------------------------------------------------------------------
 (11) _i2c_int_handler                                    10    10      0    1987
                                             26 BANK0     10    10      0
                 _ToMainHigh_sendmsg
                       _handle_start
 ---------------------------------------------------------------------------------
 (12) _handle_start                                        1     1      0      31
                                              0 BANK0      1     1      0
 ---------------------------------------------------------------------------------
 (12) _ToMainHigh_sendmsg                                  4     1      3    1376
                                             22 BANK0      4     1      3
                         i2_send_msg
 ---------------------------------------------------------------------------------
 (13) i2_send_msg                                         12     6      6     893
                                             10 BANK0     12     6      6
                           i2_memcpy
 ---------------------------------------------------------------------------------
 (14) i2_memcpy                                           10     4      6     279
                                              0 BANK0     10     4      6
 ---------------------------------------------------------------------------------
 (11) _SleepIfOkay                                         0     0      0      96
                   _enter_sleep_mode
                        i2_check_msg
                      i2_in_high_int
                       i2_in_low_int
 ---------------------------------------------------------------------------------
 (12) i2_in_low_int                                        2     0      2       0
                                              2 BANK0      2     0      2
                      i2_in_high_int
 ---------------------------------------------------------------------------------
 (13) i2_in_high_int                                       2     0      2       0
                                              0 BANK0      2     0      2
 ---------------------------------------------------------------------------------
 (12) i2_check_msg                                         3     1      2      96
                                              0 BANK0      3     1      2
 ---------------------------------------------------------------------------------
 (12) _enter_sleep_mode                                    0     0      0       0
 ---------------------------------------------------------------------------------
 Estimated maximum stack depth 14
 ---------------------------------------------------------------------------------

 Call Graph Graphs:

 _main (ROOT)
   _ADC_Init
   _FromMainLow_sendmsg
     _send_msg
       _memcpy
   _Open1USART
   _OpenTimer0
   _OpenTimer1
   _ToMainHigh_recvmsg
     _recv_msg
       _memcpy
   _ToMainLow_recvmsg
     _recv_msg
       _memcpy
   _block_on_To_msgqueues
     _Delay1KTCYx
     _check_msg
     _in_main
       _in_high_int
       _in_low_int
         _in_high_int
   _enable_interrupts
   _i2c_configure_slave
   _init_i2c
   _init_queues
     _init_queue
   _init_timer1_lthread
   _init_uart_recv
   _start_i2c_slave_reply
   _timer0_lthread
   _timer1_lthread
     _FromMainHigh_sendmsg
       _send_msg
         _memcpy
     ___lwmod
   _uart_send
     _FromMainLow_sendmsg
       _send_msg
         _memcpy

 _InterruptHandlerLow (ROOT)
   _timer1_int_handler
     _ReadTimer1
     _WriteTimer1
   _uart_recv_int_handler
     _Read1USART
     _ToMainLow_sendmsg
       i1_send_msg
         i1_memcpy
   _uart_trans_int_handler
     _FromMainLow_recvmsg
       i1_recv_msg
         i1_memcpy

 _InterruptHandlerHigh (ROOT)
   _SleepIfOkay
     _enter_sleep_mode
     i2_check_msg
     i2_in_high_int
     i2_in_low_int
       i2_in_high_int
   _i2c_int_handler
     _ToMainHigh_sendmsg
       i2_send_msg
         i2_memcpy
     _handle_start
   _timer0_int_handler
     _WriteTimer0

 Address spaces:
Name               Size   Autos  Total    Cost      Usage
BIGRAM             EBF      0       0      35        0.0%
BITBANK13          100      0       0      31        0.0%
BANK13             100      0       0      32        0.0%
BITBANK12          100      0       0      29        0.0%
BANK12             100      0       0      30        0.0%
BITBANK11          100      0       0      27        0.0%
BANK11             100      0       0      28        0.0%
BITBANK10          100      0       0      25        0.0%
BANK10             100      0       0      26        0.0%
BITBANK9           100      0       0      23        0.0%
BANK9              100      0       0      24        0.0%
BITBANK8           100      0       0      21        0.0%
BANK8              100      0       0      22        0.0%
BITBANK7           100      0       0      19        0.0%
BANK7              100      0       0      20        0.0%
BITBANK6           100      0       0      17        0.0%
BANK6              100      0       0      18        0.0%
BITBANK5           100      0       0      15        0.0%
BANK5              100      0       0      16        0.0%
BITBANK4           100      0       0      13        0.0%
BANK4              100      0       0      14        0.0%
BITBANK3           100      0       0      11        0.0%
BANK3              100      0       0      12        0.0%
BITBANK2           100      0       0       9        0.0%
BANK2              100     43      79      10       47.3%
BITBANK1           100      0       0       7        0.0%
BANK1              100     20      C2       8       75.8%
BITBANK14           C0      0       0      33        0.0%
BANK14              C0      0       0      34        0.0%
BITBANK0            A0      0       0       4        0.0%
BANK0               A0     35      6E       5       68.8%
BITCOMRAM           5F      0       0       0        0.0%
COMRAM              5F     30      33       1       53.7%
BITSFR_2             0      0       0      40        0.0%
SFR_2                0      0       0      40        0.0%
BITSFR_1             0      0       0      40        0.0%
SFR_1                0      0       0      40        0.0%
BITSFR               0      0       0      40        0.0%
SFR                  0      0       0      40        0.0%
STACK                0      0       0       2        0.0%
NULL                 0      0       0       0        0.0%
ABS                  0      0     1DC       6        0.0%
DATA                 0      0     1DC       3        0.0%
CODE                 0      0       0       0        0.0%


Microchip Technology PIC18 Macro Assembler V1.33 build 59893 
Symbol Table                                                                                   Wed Oct 29 01:44:54 2014

       _MQ_Main_Willing_to_block 0060                      _SSPSTATbits 000FC7  
      __end_of_ToMainLow_recvmsg 15CA                               bsr 000FE0  
      __end_of_ToMainLow_sendmsg 1836                     __CFG_CP0$OFF 000000  
           ?_FromMainLow_recvmsg 0019                              l124 0756  
                            l511 105C                              l440 17E6  
                            l513 1068                              l441 17E8  
                            l514 106A                              l507 1044  
                            l468 1552                              l469 1554  
                            l754 1858             ?_FromMainLow_sendmsg 01B7  
__size_of_uart_trans_int_handler 009C             __size_of_WriteTimer0 0012  
           __size_of_WriteTimer1 0012                   _FromMainLow_MQ 0100  
                            wreg 000FE8                       _TXSTA1bits 000FAD  
                   __CFG_IESO$ON 000000                     ?_in_high_int 00C9  
               ??_init_uart_recv 00CB                  ReadTimer1@timer 0003  
                           l1060 1276                             l3109 09D8  
                           l3059 1512                             l3075 1196  
                           l3163 1268                             l3155 1232  
                           l3093 091E                             l3157 123E  
                           l3159 1244                             l3441 1046  
                           l3433 1034                             l3611 06DC  
                           l3453 105E                             l3621 075C  
                           l2903 1378                             l3481 1218  
                           l3475 11F6                             l3491 09F8  
                           l3635 07D2                             l3643 08A0  
                           l3619 0712                             l3627 0788  
                           l2941 1498                             l2933 147A  
                           l3469 11D4                             l3637 0816  
                           l3629 07A0                             l3495 0A74  
                           l3639 085A                             l2957 0B2E  
                           l2897 1358                             u2617 185A  
                           i1l52 007A                      main@forward 0210  
                _FromMainHigh_MQ 0243                   Read1USART@data 0001  
         ?_block_on_To_msgqueues 0001                       i1_recv_msg 0CB8  
                           _main 0630                             fsr0h 000FEA  
                           fsr1h 000FE2                             fsr0l 000FE9  
                           fsr2h 000FDA                             indf1 000FE7  
                           fsr1l 000FE1                             indf2 000FDF  
                           fsr2l 000FD9           __CFG_DSWDTOSC$T1OSCREF 000000  
                    main@msgtype 0214                       i1_send_msg 0E54  
               __end_of_ADC_Init 1776                             pclat 000FFA  
                    i2_check_msg 1632                             prodh 000FF4  
                           prodl 000FF3            handle_start@data_read 0097  
                           start 00C0                       i2_send_msg 0BCC  
      ToMainHigh_recvmsg@msgtype 01B8                   send_msg@length 01AE  
    __size_of_timer0_int_handler 0012                      _Delay1KTCYx 1854  
                  __CFG_PLLDIV$3 000000                     _BAUDCON1bits 000F7E  
          ??_FromMainLow_recvmsg 001D            ??_FromMainLow_sendmsg 00CA  
                          ?_main 0001                            _ADRES 000FC3  
                          _T0CON 000FD5                            _T1CON 000FCD  
                __end_of___lwmod 1280                       i1memcpy@d1 0001  
                          i1l524 1844                            i2l320 048E  
                          i2l314 0410                            i2l306 02EE  
                          i2l276 0E08                            i2l292 0176  
                          i2l286 0480                            i2l288 0144  
                     i1memcpy@s1 0003              uart_send@msg_buffer 01BC  
                          _TMR0H 000FD7                            _TMR1H 000FCF  
                          _TMR0L 000FD6                            _TMR1L 000FCE  
                          _TXREG 000FAE                       i2memcpy@d1 0097  
                 __CFG_FCMEN$OFF 000000                       i2memcpy@s1 0099  
                   ?_init_queues 0001        __size_of_enter_sleep_mode 0006  
                __end_of_in_main 1520       ToMainLow_recvmsg@maxlength 00CB  
                          main@k 0200                       _Read1USART 1836  
        timer0_lthread@msgbuffer 01A8                   __CFG_T1DIG$OFF 000000  
        i2c_configure_slave@addr 00C9                            tablat 000FF5  
                          status 000FD8           _uart_trans_int_handler 0EFE  
               __end_ofi1_memcpy 1468                 __end_ofi2_memcpy 13DE  
                __initialization 1664                     __end_of_main 08BE  
                     _ReadTimer1 189E      __size_of_timer1_int_handler 0026  
     __size_of_ToMainLow_recvmsg 0036       __size_of_ToMainLow_sendmsg 0024  
          __size_ofi2_in_low_int 003E                   __CFG_OSC$HSPLL 000000  
  __size_of_FromMainHigh_sendmsg 002E                       _Open1USART 1018  
                         ??_main 00CC                  send_msg@msgtype 01AF  
                  __activetblptr 000002                  send_msg@tlength 01B2  
     FromMainLow_sendmsg@msgtype 01B7             __end_of_handle_start 0E54  
                         _ADCON0 000FC2          ??_uart_recv_int_handler 001B  
                         _T1GCON 000F9A                           i1l3029 0CFE  
                         i1l3045 0D86                           i1l3331 0F86  
                         i1l3317 1578                           i1l2913 1456  
                         i1l3545 0070                           i1l2907 143A  
                         i1l3539 0066                           i2l3005 0C1A  
                         i1l2981 0E8C                           i2l2327 14D6  
                         i2l2319 14B8                           i2l3207 01A2  
                         i2l3305 0608                           i2l3225 0220  
                         i2l3209 01CE                       _OpenTimer0 17C6  
                     _OpenTimer1 1520                           i2l3147 0E24  
                         i2l3251 039E                           i2l3227 0260  
                         i2l3219 0208                           i2l3149 0E3C  
                 __CFG_WDTEN$OFF 000000                           i2l3255 03A6  
                         i2l3183 012E                           i2l3249 035C  
                         i2l3283 0492                           i2l3531 0FDA  
                         i2l2485 1288                           i2l3277 0454  
                         i2l3189 013C                           i2l3525 0FD0  
                         i2l3297 0576                           i2l3289 04F0  
                         i2l2923 13C8                           i2l2917 13A8  
                         _RCREG1 000FAF      __end_of_i2c_configure_slave 179E  
                  ??_SleepIfOkay 009B                           _RCSTA1 000FAC  
                         _OSCCON 000FD3                           _SPBRG1 000FB0  
                    ?i1_recv_msg 000B                           _SSPADD 000FC8  
                 __CFG_WPCFG$OFF 000000                           _SSPBUF 000FC9  
 __size_of_start_i2c_slave_reply 0104                      ?i1_send_msg 000B  
                         _TXSTA1 000FAD    __end_of_start_i2c_slave_reply 0AE0  
             timer0_lthread@tptr 01A2                   __CFG_WPDIS$OFF 000000  
        FromMainLow_recvmsg@data 001B                     i2_in_low_int 14A6  
                    ?i2_send_msg 00A1                   __CFG_XINST$OFF 000000  
                _i2c_int_handler 00C4                 OpenTimer0@config 00C9  
                         _ic_ptr 00CC                        ??___lwmod 00C9  
                  main@msgbuffer 0203                 __end_of_init_i2c 115A  
               OpenTimer1@config 00CB                           _memcpy 133E  
                         clear_0 166A                           clear_1 1676  
                         clear_2 1682                           _uc_ptr 0031  
                         main@ic 0224                           main@uc 0215  
               __end_of_recv_msg 09DC      start_i2c_slave_reply@length 00CB  
                      ??_in_main 00CB                 __end_of_send_msg 0BCC  
                      ?_ADC_Init 0001          i2c_int_handler@i2c_data 00B7  
                         tblptrh 000FF7                           tblptrl 000FF6  
                         tblptru 000FF8                      init_queue@i 00CB  
       ToMainLow_recvmsg@msgtype 01B8             __size_of_in_high_int 0010  
                    ?_Read1USART 0001          FromMainLow_sendmsg@data 01B8  
                     __accesstop 0060          __end_of__initialization 168A  
     __end_of_ToMainHigh_recvmsg 1600       __end_of_ToMainHigh_sendmsg 174C  
        timer1_int_handler@right 0009                  __CFG_IOL1WAY$ON 000000  
           __CFG_WPEND$PAGE_WPFP 000000      __end_of_init_timer1_lthread 188C  
            __end_of_SleepIfOkay 12E0                   __pcstackCOMRAM 0001  
         __size_ofi2_in_high_int 0010                      ?_ReadTimer1 0001  
             __size_of_check_msg 0032                  __CFG_DSWDTPS$G2 000000  
                    ?_Open1USART 00C9              __size_ofi1_recv_msg 00D2  
            __size_ofi1_send_msg 00AA                        ?i1_memcpy 0001  
  __size_of_InterruptHandlerHigh 1010                       ??_ADC_Init 00C9  
    __end_of_InterruptHandlerLow 00C0                        ?i2_memcpy 0097  
                  _ToMainHigh_MQ 016C                 _enter_sleep_mode 18FC  
            __size_ofi2_send_msg 00EC             timer1_lthread@length 01BE  
                  check_msg@qptr 00C9             timer1_lthread@retval 00CB  
        ??_block_on_To_msgqueues 00CC             __size_of_init_queues 006C  
                     __pbssBANK0 0060                       __pbssBANK1 0100  
                     __pbssBANK2 0243                      ?_OpenTimer0 0001  
                    ?_OpenTimer1 00C9                       __pnvCOMRAM 0031  
        __end_of_i2c_int_handler 0630                     ?i2_check_msg 0097  
             timer1_lthread@tptr 01BA                recv_msg@maxlength 01AE  
                recv_msg@msgtype 01AF                  recv_msg@tlength 01B4  
          __size_of_handle_start 00CA                     ?_Delay1KTCYx 0001  
               WriteTimer0@timer 0099                          ?_memcpy 01A2  
               WriteTimer1@timer 0003                    ??_WriteTimer0 0099  
                  ??_WriteTimer1 0003              __size_of_Read1USART 001E  
        __size_of_timer0_lthread 0012          __size_of_timer1_lthread 005E  
               Open1USART@config 00CB               __size_of_uart_send 004A  
                     ??i1_memcpy 0007                       ??i2_memcpy 009D  
                        _SPBRGH1 000F7F                 i1send_msg@length 000D  
                  i2_in_high_int 18E4                          _SSPCON1 000FC6  
                        _SSPCON2 000FC5                          _SSPSTAT 000FC7  
        ?_uart_trans_int_handler 0001              __size_of_ReadTimer1 0012  
              __end_of_check_msg 1632                        ?_init_i2c 00C9  
                    _SleepIfOkay 1280              __size_of_Open1USART 0070  
                      ?_recv_msg 01AC                       _in_low_int 1468  
                   _handle_start 0D8A                          __Hparam 0000  
                      ?_send_msg 01AC                          __Lparam 0000  
     __end_of_timer0_int_handler 18C2      __end_of_FromMainLow_recvmsg 17C6  
    __end_of_FromMainLow_sendmsg 16C2                 init_uart_recv@uc 00C9  
                        ___lwmod 1220                  __CFG_STVREN$OFF 000000  
                        __pcinit 1664                  __size_of_memcpy 0050  
                     _init_queue 115A                          __ramtop 0F00  
            __size_of_OpenTimer0 0026              __size_of_OpenTimer1 003C  
                        __ptext0 0630                          __ptext1 13DE  
                        __ptext2 1694                          __ptext3 12E0  
                        __ptext4 1220                          __ptext5 16C2  
                        __ptext6 0AE0                          __ptext7 1868  
                        __ptext8 09DC                          __ptext9 16F0  
                      _T0CONbits 000FD5                OpenTimer1@config1 00C9  
                        _in_main 14E4                        _T1CONbits 000FCD  
            __end_of_WriteTimer0 18D4              __end_of_WriteTimer1 189E  
                 ?i2_in_high_int 0097   __end_of_uart_trans_int_handler 0F9A  
                 __pintcode_body 0F9A             end_of_initialization 168A  
        timer1_lthread@msgbuffer 01C0     __end_of_FromMainHigh_sendmsg 16F0  
 __size_of_uart_recv_int_handler 0038       FromMainHigh_sendmsg@length 00CA  
                        memcpy@d 01A8                          memcpy@n 01A6  
                        memcpy@s 01AA    __end_of_uart_recv_int_handler 1594  
                     ??_init_i2c 00CB                     ??i1_recv_msg 0012  
    i2c_int_handler@data_written 00B5                    __Lmediumconst 0000  
                        int_func 0F9A                     ??i1_send_msg 0011  
        __size_of_init_uart_recv 002E                 ?_i2c_int_handler 0001  
                     ??_recv_msg 00C9                __end_of_uart_send 1428  
                   ??i2_send_msg 00A7                       ??_send_msg 00C9  
     __end_of_timer1_int_handler 1812                        _RCSTAbits 000FAC  
                        postdec2 000FDD                          postinc0 000FEE  
                        postinc2 000FDE        ToMainHigh_sendmsg@msgtype 00AD  
                      _PORTBbits 000F81                 __CFG_DSBOREN$OFF 000000  
             __end_ofi1_recv_msg 0D8A                 __CFG_CPUDIV$OSC1 000000  
             __end_ofi1_send_msg 0EFE      FromMainHigh_sendmsg@msgtype 01B7  
                      _TRISAbits 000F92                        _TRISBbits 000F93  
                      _TRISCbits 000F94                        _TRISEbits 000F96  
              __size_of_ADC_Init 002A               __end_ofi2_send_msg 0CB8  
                   ??_Read1USART 0001         timer1_int_handler@result 0005  
              __CFG_WPFP$PAGE_63 000000                        _TXSTAbits 000FAD  
                     main@length 0223                      ?_in_low_int 01A2  
          timer0_lthread@msgtype 01A4            _start_i2c_slave_reply 09DC  
            __CFG_MSSP7B_EN$MSK7 000000     __size_of_i2c_configure_slave 0028  
           __size_ofi2_check_msg 0032         __end_of_enter_sleep_mode 1902  
                   ??_ReadTimer1 0003               _ToMainHigh_recvmsg 15CA  
                      i1memcpy@d 0007               _ToMainHigh_sendmsg 171E  
                      i1memcpy@n 0005                        i1memcpy@s 0009  
                 _timer0_lthread 1868                     ??_Open1USART 01A2  
                    ?_init_queue 00C9                        i2memcpy@d 009D  
                    _WriteTimer0 18C2                      _WriteTimer1 188C  
                      i2memcpy@n 009B                        i2memcpy@s 009F  
             __end_of_Read1USART 1854                   _timer1_lthread 12E0  
                 __end_of_memcpy 138E                _enable_interrupts 18F4  
           __size_of_Delay1KTCYx 0014                 __CFG_DSWDTEN$OFF 000000  
            ?_ToMainHigh_recvmsg 01B8                  ??i2_in_high_int 0099  
       i2c_int_handler@data_read 00BA              ?_ToMainHigh_sendmsg 00AD  
             ?_enable_interrupts 0001              start_initialization 1664  
                  ??_in_high_int 00CB                __size_ofi1_memcpy 0040  
              __size_ofi2_memcpy 0050        FromMainLow_sendmsg@length 00CA  
            ??_enable_interrupts 00C9                     ??_OpenTimer0 00C9  
                   ??_OpenTimer1 00CA   __size_of_block_on_To_msgqueues 0062  
             __end_of_ReadTimer1 18B0    __end_of_block_on_To_msgqueues 1220  
   __end_of_InterruptHandlerHigh 1018               __end_of_Open1USART 1088  
                     init_i2c@ic 00C9             ??_ToMainHigh_recvmsg 00CB  
           ??_ToMainHigh_sendmsg 00B0           __end_of_timer0_lthread 187A  
       i2c_int_handler@error_buf 00B2           __end_of_timer1_lthread 133E  
               __CFG_LPT1OSC$OFF 000000        __end_of_enable_interrupts 18FC  
                       ??_memcpy 00C9            timer1_lthread@msgtype 01BC  
           _FromMainHigh_sendmsg 16C2        timer1_int_handler@forward 0007  
   __size_of_init_timer1_lthread 0012               __end_of_OpenTimer0 17EC  
             __end_of_OpenTimer1 155C         i2c_int_handler@msg_ready 00B9  
         timer1_int_handler@left 0008                      __pbssCOMRAM 0033  
                  _SensorData_MQ 0136                    ??_init_queues 00CC  
                  __pcstackBANK0 0097                    __pcstackBANK1 01A2  
                  __pcstackBANK2 0200              __size_of_in_low_int 003E  
       start_i2c_slave_reply@msg 00C9                  Delay1KTCYx@unit 00C9  
       ToMainLow_sendmsg@msgtype 0017     __size_of_InterruptHandlerLow 00A8  
            __end_of_in_high_int 18E4                     ?_SleepIfOkay 0001  
          ToMainLow_recvmsg@data 01BA                     _ToMainLow_MQ 0061  
            __size_of_init_queue 0064                   _init_uart_recv 16F0  
                      _check_msg 1600                        __pnvBANK0 00CC  
         ?_start_i2c_slave_reply 00C9                __size_of_init_i2c 0066  
                   recv_msg@data 01B1                     recv_msg@qmsg 01B6  
                   recv_msg@slot 01B3                     recv_msg@qptr 01AC  
              __size_of_recv_msg 011E                        __pintcode 0008  
              __size_of_send_msg 00EC                  ?_timer0_lthread 01A2  
                       ?___lwmod 01A2                  ?_timer1_lthread 01BA  
          ?_FromMainHigh_sendmsg 01B7                      __pintcodelo 0018  
         ToMainHigh_recvmsg@data 01BA                  Open1USART@spbrg 00C9  
     i2c_int_handler@msg_to_send 00B8                         ?_in_main 01A4  
              WriteTimer0@timer0 0097               _timer0_int_handler 18B0  
              WriteTimer1@timer1 0001                         _ADC_Init 174C  
           __CFG_RTCOSC$T1OSCREF 000000            ToMainLow_sendmsg@data 0018  
            i1recv_msg@maxlength 000D              ?_timer0_int_handler 0001  
         __end_of_init_uart_recv 171E              __end_of_init_queues 10F4  
                       _LATCbits 000F8B                         _LATEbits 000F8D  
                i2check_msg@qptr 0097                       ?_check_msg 00C9  
                       _IPR1bits 000F9F                         _PIE1bits 000F9D  
                  ?i2_in_low_int 0099                         _PIR1bits 000F9E  
         ToMainHigh_sendmsg@data 00AE                         _RCONbits 000FD0  
               __CFG_WDTPS$32768 000000                   i1recv_msg@data 0010  
                      _uart_send 13DE             ??_timer0_int_handler 009B  
                 i1recv_msg@qmsg 0017                   i1recv_msg@slot 0014  
                 i1recv_msg@qptr 000B     FromMainLow_recvmsg@maxlength 001D  
     __size_of_enable_interrupts 0008                i1send_msg@msgtype 000E  
              i1send_msg@tlength 0012       FromMainLow_recvmsg@msgtype 0019  
                     _ADCON0bits 000FC2                       _ADCON1bits 000FC1  
   __size_of_FromMainLow_recvmsg 0028     __size_of_FromMainLow_sendmsg 002E  
           timer0_lthread@length 01A6               _timer1_int_handler 17EC  
                       i1_memcpy 1428             _InterruptHandlerHigh 0008  
                       i2_memcpy 138E             timer0_lthread@msgval 00C9  
                    _in_high_int 18D4                     send_msg@data 01B0  
            _i2c_configure_slave 1776                     send_msg@qmsg 01B5  
                   send_msg@slot 01B4                     send_msg@qptr 01AC  
                    _INTCON2bits 000FF1              ?_timer1_int_handler 0001  
                ?_init_uart_recv 00C9                   ??i2_in_low_int 009B  
                       __Hparam0 0000            _uart_recv_int_handler 155C  
                   ??_in_low_int 00CB                       _ANCON0bits 000F48  
                       __Lparam0 0000             ?_i2c_configure_slave 0001  
              ?_enter_sleep_mode 0001                       ?_uart_send 01BA  
         ??_FromMainHigh_sendmsg 00CA             ??_timer1_int_handler 0005  
       __size_of_i2c_int_handler 056C               ??_enter_sleep_mode 0097  
               __size_of___lwmod 0060                     ??_init_queue 00CB  
                   ?_WriteTimer0 0097                     ?_WriteTimer1 0001  
                uart_send@length 01BA         FromMainHigh_sendmsg@data 01B8  
        ToMainLow_sendmsg@length 001A                main@t0thread_data 020E  
          ?_InterruptHandlerHigh 0001                 __size_of_in_main 003C  
              i2send_msg@msgtype 00A4      ToMainHigh_recvmsg@maxlength 00CB  
              i2send_msg@tlength 00A8          init_timer1_lthread@tptr 00C9  
                    _init_queues 1088               __end_of_in_low_int 14A6  
                       __ptext10 187A                         __ptext11 1088  
                       __ptext20 1600                         __ptext12 115A  
                       __ptext21 1854                         __ptext13 10F4  
                     _T1GCONbits 000F9A                         __ptext22 1594  
                       __ptext14 1776                         __ptext31 0EFE  
                       __ptext23 15CA                         __ptext15 18F4  
                       __ptext40 188C                         __ptext32 179E  
                       __ptext24 08BE                         __ptext16 11BE  
                       __ptext41 189E                         __ptext33 0CB8  
                       __ptext25 133E                         __ptext17 14E4  
                       __ptext50 1280                         __ptext34 155C  
                       __ptext26 1520                         __ptext18 1468  
                       __ptext51 14A6                         __ptext43 18B0  
                       __ptext35 1812                         __ptext27 17C6  
                       __ptext19 18D4                         __ptext52 18E4  
                       __ptext44 18C2                         __ptext36 0E54  
                       __ptext28 1018                         __ptext53 1632  
                       __ptext45 00C4                         __ptext37 1428  
                       __ptext29 174C                         __ptext54 18FC  
                       __ptext46 0D8A                         __ptext38 1836  
                       __ptext47 171E                         __ptext39 17EC  
                       __ptext48 0BCC                         __ptext49 138E  
                 i1send_msg@data 000F                   i1send_msg@qmsg 0015  
                 i1send_msg@slot 0014                   i1send_msg@qptr 000B  
                       _init_i2c 10F4              _init_timer1_lthread 187A  
                  __size_of_main 028E                    ??i2_check_msg 0099  
              main@t1thread_data 0212                      ??_check_msg 00CB  
             __end_of_init_queue 11BE             __size_of_SleepIfOkay 0060  
                       _recv_msg 08BE            ??_i2c_configure_slave 00C9  
                       _send_msg 0AE0                   init_queue@qptr 00C9  
                  ??_Delay1KTCYx 00C9              _InterruptHandlerLow 0018  
           ?_init_timer1_lthread 00C9                    _USART1_Status 0033  
       ??_uart_trans_int_handler 001E                      _OSCTUNEbits 000F9B  
                     _INTCONbits 000FF2                         memcpy@d1 01A2  
                       memcpy@s1 01A4            __end_ofi2_in_high_int 18F4  
   i2c_int_handler@overrun_error 00B6                 i2send_msg@length 00A3  
                       intlevel1 0000                         intlevel2 0000  
           ?_InterruptHandlerLow 0001          ??_start_i2c_slave_reply 01A2  
               ___lwmod@dividend 01A2           ?_uart_recv_int_handler 0001  
                     _RCSTA1bits 000FAC            _block_on_To_msgqueues 11BE  
                  ?_handle_start 0001                 ??_timer0_lthread 00C9  
    __size_of_ToMainHigh_recvmsg 0036      __size_of_ToMainHigh_sendmsg 002E  
                     _OSCCONbits 000FD3                 ??_timer1_lthread 00CB  
              i1recv_msg@msgtype 000E                i1recv_msg@tlength 0015  
       ToMainHigh_sendmsg@length 00B0                      ??_uart_send 00CB  
            __end_ofi2_check_msg 1664            ??_init_timer1_lthread 00CB  
         ??_InterruptHandlerHigh 00BB                _ToMainLow_recvmsg 1594  
              _ToMainLow_sendmsg 1812      uart_recv_int_handler@readin 001B  
             main@last_reg_recvd 0202                  ___lwmod@divisor 01A4  
           __end_ofi2_in_low_int 14E4               ?_ToMainLow_recvmsg 01B8  
            __end_of_Delay1KTCYx 1868                ??_i2c_int_handler 00B1  
                ___lwmod@counter 00C9               ?_ToMainLow_sendmsg 0017  
                    _SSPCON1bits 000FC6                      _SSPCON2bits 000FC5  
                 i2send_msg@data 00A5            ??_InterruptHandlerLow 0020  
            ??_ToMainLow_recvmsg 00CB                   i2send_msg@qmsg 00AB  
                 i2send_msg@slot 00AA                   i2send_msg@qptr 00A1  
            ??_ToMainLow_sendmsg 001A              _FromMainLow_recvmsg 179E  
                 ??_handle_start 0097              _FromMainLow_sendmsg 1694  
